
playwav.elf:     file format elf32-avr

Sections:
Idx Name          Size      VMA       LMA       File off  Algn
  0 .text         000030ca  00000000  00000000  00000074  2**1
                  CONTENTS, ALLOC, LOAD, READONLY, CODE
  1 .bss          00000002  00800100  00800100  0000313e  2**0
                  ALLOC
  2 .comment      00000030  00000000  00000000  0000313e  2**0
                  CONTENTS, READONLY
  3 .debug_aranges 00000030  00000000  00000000  0000316e  2**0
                  CONTENTS, READONLY, DEBUGGING
  4 .debug_info   0000018a  00000000  00000000  0000319e  2**0
                  CONTENTS, READONLY, DEBUGGING
  5 .debug_abbrev 000000ea  00000000  00000000  00003328  2**0
                  CONTENTS, READONLY, DEBUGGING
  6 .debug_line   000000f6  00000000  00000000  00003412  2**0
                  CONTENTS, READONLY, DEBUGGING
  7 .debug_frame  00000054  00000000  00000000  00003508  2**2
                  CONTENTS, READONLY, DEBUGGING
  8 .debug_str    0000017b  00000000  00000000  0000355c  2**0
                  CONTENTS, READONLY, DEBUGGING
  9 .debug_loc    000001a5  00000000  00000000  000036d7  2**0
                  CONTENTS, READONLY, DEBUGGING
 10 .debug_ranges 00000020  00000000  00000000  0000387c  2**0
                  CONTENTS, READONLY, DEBUGGING

Disassembly of section .text:

00000000 <__vectors>:
       0:	0c 94 a4 17 	jmp	0x2f48	; 0x2f48 <__ctors_end>
       4:	0c 94 b6 17 	jmp	0x2f6c	; 0x2f6c <__bad_interrupt>
       8:	0c 94 b6 17 	jmp	0x2f6c	; 0x2f6c <__bad_interrupt>
       c:	0c 94 b6 17 	jmp	0x2f6c	; 0x2f6c <__bad_interrupt>
      10:	0c 94 b6 17 	jmp	0x2f6c	; 0x2f6c <__bad_interrupt>
      14:	0c 94 b6 17 	jmp	0x2f6c	; 0x2f6c <__bad_interrupt>
      18:	0c 94 b6 17 	jmp	0x2f6c	; 0x2f6c <__bad_interrupt>
      1c:	0c 94 b6 17 	jmp	0x2f6c	; 0x2f6c <__bad_interrupt>
      20:	0c 94 b6 17 	jmp	0x2f6c	; 0x2f6c <__bad_interrupt>
      24:	0c 94 b6 17 	jmp	0x2f6c	; 0x2f6c <__bad_interrupt>
      28:	0c 94 b6 17 	jmp	0x2f6c	; 0x2f6c <__bad_interrupt>
      2c:	0c 94 b6 17 	jmp	0x2f6c	; 0x2f6c <__bad_interrupt>
      30:	0c 94 b6 17 	jmp	0x2f6c	; 0x2f6c <__bad_interrupt>
      34:	0c 94 b8 17 	jmp	0x2f70	; 0x2f70 <__vector_13>
      38:	0c 94 b6 17 	jmp	0x2f6c	; 0x2f6c <__bad_interrupt>
      3c:	0c 94 b6 17 	jmp	0x2f6c	; 0x2f6c <__bad_interrupt>
      40:	0c 94 b6 17 	jmp	0x2f6c	; 0x2f6c <__bad_interrupt>
      44:	0c 94 b6 17 	jmp	0x2f6c	; 0x2f6c <__bad_interrupt>
      48:	0c 94 b6 17 	jmp	0x2f6c	; 0x2f6c <__bad_interrupt>
      4c:	0c 94 b6 17 	jmp	0x2f6c	; 0x2f6c <__bad_interrupt>
      50:	0c 94 b6 17 	jmp	0x2f6c	; 0x2f6c <__bad_interrupt>
      54:	0c 94 b6 17 	jmp	0x2f6c	; 0x2f6c <__bad_interrupt>
      58:	0c 94 b6 17 	jmp	0x2f6c	; 0x2f6c <__bad_interrupt>
      5c:	0c 94 b6 17 	jmp	0x2f6c	; 0x2f6c <__bad_interrupt>
      60:	0c 94 b6 17 	jmp	0x2f6c	; 0x2f6c <__bad_interrupt>
      64:	0c 94 b6 17 	jmp	0x2f6c	; 0x2f6c <__bad_interrupt>

00000068 <__trampolines_end>:
      68:	80 85       	ldd	r24, Z+8	; 0x08
      6a:	81 84       	ldd	r8, Z+9	; 0x09
      6c:	85 84       	ldd	r8, Z+13	; 0x0d
      6e:	83 82       	std	Z+3, r8	; 0x03
      70:	86 80       	ldd	r8, Z+6	; 0x06
      72:	80 84       	ldd	r8, Z+8	; 0x08
      74:	81 7e       	andi	r24, 0xE1	; 225
      76:	80 7c       	andi	r24, 0xC0	; 192
      78:	7e 7b       	andi	r23, 0xBE	; 190
      7a:	7c 7b       	andi	r23, 0xBC	; 188
      7c:	79 7c       	andi	r23, 0xC9	; 201
      7e:	79 7a       	andi	r23, 0xA9	; 169
      80:	7a 7c       	andi	r23, 0xCA	; 202
      82:	7d 7e       	andi	r23, 0xED	; 237
      84:	7d 80       	ldd	r7, Y+5	; 0x05
      86:	7f 81       	ldd	r23, Y+7	; 0x07
      88:	82 82       	std	Z+2, r8	; 0x02
      8a:	83 83       	std	Z+3, r24	; 0x03
      8c:	83 85       	ldd	r24, Z+11	; 0x0b
      8e:	82 84       	ldd	r8, Z+10	; 0x0a
      90:	84 84       	ldd	r8, Z+12	; 0x0c
      92:	82 83       	std	Z+2, r24	; 0x02
      94:	82 81       	ldd	r24, Z+2	; 0x02
      96:	81 81       	ldd	r24, Z+1	; 0x01
      98:	80 7f       	andi	r24, 0xF0	; 240
      9a:	7f 7d       	andi	r23, 0xDF	; 223
      9c:	7c 7c       	andi	r23, 0xCC	; 204
      9e:	7e 7e       	andi	r23, 0xEE	; 238
      a0:	80 80       	ld	r8, Z
      a2:	7e 7f       	andi	r23, 0xFE	; 254
      a4:	7f 82       	std	Y+7, r7	; 0x07
      a6:	81 81       	ldd	r24, Z+1	; 0x01
      a8:	85 83       	std	Z+5, r24	; 0x05
      aa:	82 83       	std	Z+2, r24	; 0x02
      ac:	81 82       	std	Z+1, r8	; 0x01
      ae:	84 82       	std	Z+4, r8	; 0x04
      b0:	84 85       	ldd	r24, Z+12	; 0x0c
      b2:	84 84       	ldd	r8, Z+12	; 0x0c
      b4:	82 82       	std	Z+2, r8	; 0x02
      b6:	81 80       	ldd	r8, Z+1	; 0x01
      b8:	80 7f       	andi	r24, 0xF0	; 240
      ba:	7d 7d       	andi	r23, 0xDD	; 221
      bc:	7c 7a       	andi	r23, 0xAC	; 172
      be:	7b 7b       	andi	r23, 0xBB	; 187
      c0:	7b 7a       	andi	r23, 0xAB	; 171
      c2:	7b 7c       	andi	r23, 0xCB	; 203
      c4:	7b 7d       	andi	r23, 0xDB	; 219
      c6:	7e 7e       	andi	r23, 0xEE	; 238
      c8:	7f 7f       	andi	r23, 0xFF	; 255
      ca:	81 80       	ldd	r8, Z+1	; 0x01
      cc:	82 82       	std	Z+2, r8	; 0x02
      ce:	83 81       	ldd	r24, Z+3	; 0x03
      d0:	7f 80       	ldd	r7, Y+7	; 0x07
      d2:	81 7e       	andi	r24, 0xE1	; 225
      d4:	80 7e       	andi	r24, 0xE0	; 224
      d6:	7e 7c       	andi	r23, 0xCE	; 206
      d8:	7c 7e       	andi	r23, 0xEC	; 236
      da:	7b 7a       	andi	r23, 0xAB	; 171
      dc:	7f 7d       	andi	r23, 0xDF	; 223
      de:	7d 7e       	andi	r23, 0xED	; 237
      e0:	80 81       	ld	r24, Z
      e2:	83 83       	std	Z+3, r24	; 0x03
      e4:	85 85       	ldd	r24, Z+13	; 0x0d
      e6:	88 89       	ldd	r24, Y+16	; 0x10
      e8:	86 8a       	std	Z+22, r8	; 0x16
      ea:	88 88       	ldd	r8, Y+16	; 0x10
      ec:	8a 8a       	std	Y+18, r8	; 0x12
      ee:	87 89       	ldd	r24, Z+23	; 0x17
      f0:	88 82       	st	Y, r8
      f2:	87 7e       	andi	r24, 0xE7	; 231
      f4:	81 79       	andi	r24, 0x91	; 145
      f6:	7d 76       	andi	r23, 0x6D	; 109
      f8:	72 79       	andi	r23, 0x92	; 146
      fa:	70 79       	andi	r23, 0x90	; 144
      fc:	6d 7c       	andi	r22, 0xCD	; 205
      fe:	71 7b       	andi	r23, 0xB1	; 177
     100:	75 79       	andi	r23, 0x95	; 149
     102:	7d 7c       	andi	r23, 0xCD	; 205
     104:	83 7e       	andi	r24, 0xE3	; 227
     106:	86 81       	ldd	r24, Z+6	; 0x06
     108:	8a 86       	std	Y+10, r8	; 0x0a
     10a:	87 8a       	std	Z+23, r8	; 0x17
     10c:	87 89       	ldd	r24, Z+23	; 0x17
     10e:	85 87       	std	Z+13, r24	; 0x0d
     110:	81 82       	std	Z+1, r8	; 0x01
     112:	81 7d       	andi	r24, 0xD1	; 209
     114:	7d 7a       	andi	r23, 0xAD	; 173
     116:	7a 76       	andi	r23, 0x6A	; 106
     118:	78 76       	andi	r23, 0x68	; 104
     11a:	75 76       	andi	r23, 0x65	; 101
     11c:	79 7a       	andi	r23, 0xA9	; 169
     11e:	79 7d       	andi	r23, 0xD9	; 217
     120:	7e 81       	ldd	r23, Y+6	; 0x06
     122:	80 85       	ldd	r24, Z+8	; 0x08
     124:	84 86       	std	Z+12, r8	; 0x0c
     126:	88 87       	std	Y+8, r24	; 0x08
     128:	88 87       	std	Y+8, r24	; 0x08
     12a:	8b 87       	std	Y+11, r24	; 0x0b
     12c:	88 88       	ldd	r8, Y+16	; 0x10
     12e:	88 86       	std	Y+8, r8	; 0x08
     130:	8a 89       	ldd	r24, Y+18	; 0x12
     132:	8b 86       	std	Y+11, r8	; 0x0b
     134:	8b 7f       	andi	r24, 0xFB	; 251
     136:	89 7f       	andi	r24, 0xF9	; 249
     138:	84 7a       	andi	r24, 0xA4	; 164
     13a:	76 80       	ldd	r7, Z+6	; 0x06
     13c:	6d 7e       	andi	r22, 0xED	; 237
     13e:	6d 79       	andi	r22, 0x9D	; 157
     140:	6d 7a       	andi	r22, 0xAD	; 173
     142:	7b 6f       	ori	r23, 0xFB	; 251
     144:	7f 73       	andi	r23, 0x3F	; 63
     146:	85 75       	andi	r24, 0x55	; 85
     148:	89 7c       	andi	r24, 0xC9	; 201
     14a:	84 87       	std	Z+12, r24	; 0x0c
     14c:	87 8a       	std	Z+23, r8	; 0x17
     14e:	88 8c       	ldd	r8, Y+24	; 0x18
     150:	86 8c       	ldd	r8, Z+30	; 0x1e
     152:	86 87       	std	Z+14, r24	; 0x0e
     154:	85 80       	ldd	r8, Z+5	; 0x05
     156:	81 7b       	andi	r24, 0xB1	; 177
     158:	7c 76       	andi	r23, 0x6C	; 108
     15a:	75 76       	andi	r23, 0x65	; 101
     15c:	72 71       	andi	r23, 0x12	; 18
     15e:	73 74       	andi	r23, 0x43	; 67
     160:	72 79       	andi	r23, 0x92	; 146
     162:	77 7b       	andi	r23, 0xB7	; 183
     164:	7b 83       	std	Y+3, r23	; 0x03
     166:	83 83       	std	Z+3, r24	; 0x03
     168:	89 89       	ldd	r24, Y+17	; 0x11
     16a:	89 89       	ldd	r24, Y+17	; 0x11
     16c:	8b 8b       	std	Y+19, r24	; 0x13
     16e:	87 8a       	std	Z+23, r8	; 0x17
     170:	88 86       	std	Y+8, r8	; 0x08
     172:	86 86       	std	Z+14, r8	; 0x0e
     174:	84 84       	ldd	r8, Z+12	; 0x0c
     176:	85 87       	std	Z+13, r24	; 0x0d
     178:	83 83       	std	Z+3, r24	; 0x03
     17a:	87 83       	std	Z+7, r24	; 0x07
     17c:	84 84       	ldd	r8, Z+12	; 0x0c
     17e:	7f 83       	std	Y+7, r23	; 0x07
     180:	7e 7c       	andi	r23, 0xCE	; 206
     182:	7b 75       	andi	r23, 0x5B	; 91
     184:	7a 75       	andi	r23, 0x5A	; 90
     186:	77 75       	andi	r23, 0x57	; 87
     188:	73 79       	andi	r23, 0x93	; 147
     18a:	74 7c       	andi	r23, 0xC4	; 196
     18c:	78 7d       	andi	r23, 0xD8	; 216
     18e:	7c 83       	std	Y+4, r23	; 0x04
     190:	84 83       	std	Z+4, r24	; 0x04
     192:	87 87       	std	Z+15, r24	; 0x0f
     194:	8a 85       	ldd	r24, Y+10	; 0x0a
     196:	8e 88       	ldd	r8, Y+22	; 0x16
     198:	88 88       	ldd	r8, Y+16	; 0x10
     19a:	85 83       	std	Z+5, r24	; 0x05
     19c:	7e 81       	ldd	r23, Y+6	; 0x06
     19e:	7c 78       	andi	r23, 0x8C	; 140
     1a0:	75 76       	andi	r23, 0x65	; 101
     1a2:	72 71       	andi	r23, 0x12	; 18
     1a4:	76 72       	andi	r23, 0x26	; 38
     1a6:	76 76       	andi	r23, 0x66	; 102
     1a8:	7a 79       	andi	r23, 0x9A	; 154
     1aa:	7d 81       	ldd	r23, Y+5	; 0x05
     1ac:	81 85       	ldd	r24, Z+9	; 0x09
     1ae:	85 88       	ldd	r8, Z+21	; 0x15
     1b0:	86 8a       	std	Z+22, r8	; 0x16
     1b2:	88 89       	ldd	r24, Y+16	; 0x10
     1b4:	87 87       	std	Z+15, r24	; 0x0f
     1b6:	87 86       	std	Z+15, r8	; 0x0f
     1b8:	83 84       	ldd	r8, Z+11	; 0x0b
     1ba:	82 85       	ldd	r24, Z+10	; 0x0a
     1bc:	85 82       	std	Z+5, r8	; 0x05
     1be:	87 80       	ldd	r8, Z+7	; 0x07
     1c0:	89 86       	std	Y+9, r8	; 0x09
     1c2:	86 8a       	std	Z+22, r8	; 0x16
     1c4:	88 86       	std	Y+8, r8	; 0x08
     1c6:	86 85       	ldd	r24, Z+14	; 0x0e
     1c8:	80 80       	ld	r8, Z
     1ca:	7f 76       	andi	r23, 0x6F	; 111
     1cc:	78 6f       	ori	r23, 0xF8	; 248
     1ce:	74 6f       	ori	r23, 0xF4	; 244
     1d0:	75 6f       	ori	r23, 0xF5	; 245
     1d2:	71 78       	andi	r23, 0x81	; 129
     1d4:	74 7d       	andi	r23, 0xD4	; 212
     1d6:	79 83       	std	Y+1, r23	; 0x01
     1d8:	80 87       	std	Z+8, r24	; 0x08
     1da:	88 86       	std	Y+8, r8	; 0x08
     1dc:	8b 8b       	std	Y+19, r24	; 0x13
     1de:	8c 8b       	std	Y+20, r24	; 0x14
     1e0:	8a 87       	std	Y+10, r24	; 0x0a
     1e2:	86 85       	ldd	r24, Z+14	; 0x0e
     1e4:	7f 80       	ldd	r7, Y+7	; 0x07
     1e6:	7b 79       	andi	r23, 0x9B	; 155
     1e8:	77 75       	andi	r23, 0x57	; 87
     1ea:	74 73       	andi	r23, 0x34	; 52
     1ec:	75 72       	andi	r23, 0x25	; 37
     1ee:	76 77       	andi	r23, 0x76	; 118
     1f0:	78 7a       	andi	r23, 0xA8	; 168
     1f2:	7f 7e       	andi	r23, 0xEF	; 239
     1f4:	82 83       	std	Z+2, r24	; 0x02
     1f6:	85 86       	std	Z+13, r8	; 0x0d
     1f8:	87 8a       	std	Z+23, r8	; 0x17
     1fa:	87 88       	ldd	r8, Z+23	; 0x17
     1fc:	88 87       	std	Y+8, r24	; 0x08
     1fe:	86 83       	std	Z+6, r24	; 0x06
     200:	85 85       	ldd	r24, Z+13	; 0x0d
     202:	7f 86       	std	Y+15, r7	; 0x0f
     204:	84 81       	ldd	r24, Z+4	; 0x04
     206:	85 85       	ldd	r24, Z+13	; 0x0d
     208:	83 85       	ldd	r24, Z+11	; 0x0b
     20a:	87 83       	std	Z+7, r24	; 0x07
     20c:	84 87       	std	Z+12, r24	; 0x0c
     20e:	88 83       	st	Y, r24
     210:	86 82       	std	Z+6, r8	; 0x06
     212:	81 7e       	andi	r24, 0xE1	; 225
     214:	7e 78       	andi	r23, 0x8E	; 142
     216:	7a 77       	andi	r23, 0x7A	; 122
     218:	71 75       	andi	r23, 0x51	; 81
     21a:	74 76       	andi	r23, 0x64	; 100
     21c:	74 79       	andi	r23, 0x94	; 148
     21e:	78 7c       	andi	r23, 0xC8	; 200
     220:	7e 81       	ldd	r23, Y+6	; 0x06
     222:	83 85       	ldd	r24, Z+11	; 0x0b
     224:	86 87       	std	Z+14, r24	; 0x0e
     226:	87 88       	ldd	r8, Z+23	; 0x17
     228:	88 87       	std	Y+8, r24	; 0x08
     22a:	84 83       	std	Z+4, r24	; 0x04
     22c:	82 7f       	andi	r24, 0xF2	; 242
     22e:	7d 7c       	andi	r23, 0xCD	; 205
     230:	79 78       	andi	r23, 0x89	; 137
     232:	78 75       	andi	r23, 0x58	; 88
     234:	76 77       	andi	r23, 0x76	; 118
     236:	78 79       	andi	r23, 0x98	; 152
     238:	7b 7d       	andi	r23, 0xDB	; 219
     23a:	7d 80       	ldd	r7, Y+5	; 0x05
     23c:	81 82       	std	Z+1, r8	; 0x01
     23e:	83 84       	ldd	r8, Z+11	; 0x0b
     240:	84 85       	ldd	r24, Z+12	; 0x0c
     242:	85 86       	std	Z+13, r8	; 0x0d
     244:	85 85       	ldd	r24, Z+13	; 0x0d
     246:	85 84       	ldd	r8, Z+13	; 0x0d
     248:	84 85       	ldd	r24, Z+12	; 0x0c
     24a:	82 82       	std	Z+2, r8	; 0x02
     24c:	84 83       	std	Z+4, r24	; 0x04
     24e:	83 81       	ldd	r24, Z+3	; 0x03
     250:	85 84       	ldd	r8, Z+13	; 0x0d
     252:	86 86       	std	Z+14, r8	; 0x0e
     254:	85 87       	std	Z+13, r24	; 0x0d
     256:	87 87       	std	Z+15, r24	; 0x0f
     258:	84 84       	ldd	r8, Z+12	; 0x0c
     25a:	85 81       	ldd	r24, Z+5	; 0x05
     25c:	7e 7d       	andi	r23, 0xDE	; 222
     25e:	7b 79       	andi	r23, 0x9B	; 155
     260:	77 76       	andi	r23, 0x67	; 103
     262:	78 75       	andi	r23, 0x58	; 88
     264:	77 78       	andi	r23, 0x87	; 135
     266:	79 7b       	andi	r23, 0xB9	; 185
     268:	7d 7d       	andi	r23, 0xDD	; 221
     26a:	80 81       	ld	r24, Z
     26c:	83 83       	std	Z+3, r24	; 0x03
     26e:	83 83       	std	Z+3, r24	; 0x03
     270:	84 83       	std	Z+4, r24	; 0x04
     272:	83 82       	std	Z+3, r8	; 0x03
     274:	82 80       	ldd	r8, Z+2	; 0x02
     276:	7f 80       	ldd	r7, Y+7	; 0x07
     278:	7e 7e       	andi	r23, 0xEE	; 238
     27a:	7d 7d       	andi	r23, 0xDD	; 221
     27c:	7e 7d       	andi	r23, 0xDE	; 222
     27e:	7d 7e       	andi	r23, 0xED	; 237
     280:	7e 7f       	andi	r23, 0xFE	; 254
     282:	7f 7f       	andi	r23, 0xFF	; 255
     284:	7f 7f       	andi	r23, 0xFF	; 255
     286:	7f 7f       	andi	r23, 0xFF	; 255
     288:	80 80       	ld	r8, Z
     28a:	80 7f       	andi	r24, 0xF0	; 240
     28c:	80 80       	ld	r8, Z
     28e:	81 80       	ldd	r8, Z+1	; 0x01
     290:	80 80       	ld	r8, Z
     292:	81 81       	ldd	r24, Z+1	; 0x01
     294:	82 82       	std	Z+2, r8	; 0x02
     296:	82 83       	std	Z+2, r24	; 0x02
     298:	83 84       	ldd	r8, Z+11	; 0x0b
     29a:	84 84       	ldd	r8, Z+12	; 0x0c
     29c:	83 84       	ldd	r8, Z+11	; 0x0b
     29e:	83 82       	std	Z+3, r8	; 0x03
     2a0:	82 82       	std	Z+2, r8	; 0x02
     2a2:	80 81       	ld	r24, Z
     2a4:	80 80       	ld	r8, Z
     2a6:	80 80       	ld	r8, Z
     2a8:	7f 80       	ldd	r7, Y+7	; 0x07
     2aa:	81 81       	ldd	r24, Z+1	; 0x01
     2ac:	82 82       	std	Z+2, r8	; 0x02
     2ae:	82 82       	std	Z+2, r8	; 0x02
     2b0:	82 82       	std	Z+2, r8	; 0x02
     2b2:	81 80       	ldd	r8, Z+1	; 0x01
     2b4:	80 7f       	andi	r24, 0xF0	; 240
     2b6:	7e 7e       	andi	r23, 0xEE	; 238
     2b8:	7d 7d       	andi	r23, 0xDD	; 221
     2ba:	7c 7d       	andi	r23, 0xDC	; 220
     2bc:	7b 7b       	andi	r23, 0xBB	; 187
     2be:	7b 7b       	andi	r23, 0xBB	; 187
     2c0:	7b 7b       	andi	r23, 0xBB	; 187
     2c2:	7b 7c       	andi	r23, 0xCB	; 203
     2c4:	7d 7d       	andi	r23, 0xDD	; 221
     2c6:	80 81       	ld	r24, Z
     2c8:	82 83       	std	Z+2, r24	; 0x02
     2ca:	83 84       	ldd	r8, Z+11	; 0x0b
     2cc:	83 84       	ldd	r8, Z+11	; 0x0b
     2ce:	84 84       	ldd	r8, Z+12	; 0x0c
     2d0:	82 82       	std	Z+2, r8	; 0x02
     2d2:	81 81       	ldd	r24, Z+1	; 0x01
     2d4:	80 7f       	andi	r24, 0xF0	; 240
     2d6:	7e 7e       	andi	r23, 0xEE	; 238
     2d8:	7e 7d       	andi	r23, 0xDE	; 222
     2da:	7e 7d       	andi	r23, 0xDE	; 222
     2dc:	7f 7e       	andi	r23, 0xEF	; 239
     2de:	7e 7f       	andi	r23, 0xFE	; 254
     2e0:	80 80       	ld	r8, Z
     2e2:	81 81       	ldd	r24, Z+1	; 0x01
     2e4:	81 81       	ldd	r24, Z+1	; 0x01
     2e6:	81 81       	ldd	r24, Z+1	; 0x01
     2e8:	81 81       	ldd	r24, Z+1	; 0x01
     2ea:	81 82       	std	Z+1, r8	; 0x01
     2ec:	81 81       	ldd	r24, Z+1	; 0x01
     2ee:	82 81       	ldd	r24, Z+2	; 0x02
     2f0:	83 83       	std	Z+3, r24	; 0x03
     2f2:	83 83       	std	Z+3, r24	; 0x03
     2f4:	83 82       	std	Z+3, r8	; 0x03
     2f6:	81 82       	std	Z+1, r8	; 0x01
     2f8:	82 81       	ldd	r24, Z+2	; 0x02
     2fa:	81 80       	ldd	r8, Z+1	; 0x01
     2fc:	80 81       	ld	r24, Z
     2fe:	80 7f       	andi	r24, 0xF0	; 240
     300:	7e 7f       	andi	r23, 0xFE	; 254
     302:	7d 7e       	andi	r23, 0xED	; 237
     304:	7d 7e       	andi	r23, 0xED	; 237
     306:	7e 7e       	andi	r23, 0xEE	; 238
     308:	7e 7e       	andi	r23, 0xEE	; 238
     30a:	7e 7e       	andi	r23, 0xEE	; 238
     30c:	7f 7e       	andi	r23, 0xEF	; 239
     30e:	80 80       	ld	r8, Z
     310:	81 80       	ldd	r8, Z+1	; 0x01
     312:	80 80       	ld	r8, Z
     314:	80 81       	ld	r24, Z
     316:	80 81       	ld	r24, Z
     318:	81 7f       	andi	r24, 0xF1	; 241
     31a:	80 81       	ld	r24, Z
     31c:	81 80       	ldd	r8, Z+1	; 0x01
     31e:	80 7f       	andi	r24, 0xF0	; 240
     320:	7f 7f       	andi	r23, 0xFF	; 255
     322:	80 81       	ld	r24, Z
     324:	80 80       	ld	r8, Z
     326:	81 80       	ldd	r8, Z+1	; 0x01
     328:	80 7f       	andi	r24, 0xF0	; 240
     32a:	7f 80       	ldd	r7, Y+7	; 0x07
     32c:	81 80       	ldd	r8, Z+1	; 0x01
     32e:	80 80       	ld	r8, Z
     330:	80 80       	ld	r8, Z
     332:	80 81       	ld	r24, Z
     334:	80 81       	ld	r24, Z
     336:	81 80       	ldd	r8, Z+1	; 0x01
     338:	82 81       	ldd	r24, Z+2	; 0x02
     33a:	81 82       	std	Z+1, r8	; 0x01
     33c:	81 79       	andi	r24, 0x91	; 145
     33e:	7c 86       	std	Y+12, r7	; 0x0c
     340:	85 80       	ldd	r8, Z+5	; 0x05
     342:	7a 7c       	andi	r23, 0xCA	; 202
     344:	82 7e       	andi	r24, 0xE2	; 226
     346:	7b 7e       	andi	r23, 0xEB	; 235
     348:	80 82       	st	Z, r8
     34a:	7f 7f       	andi	r23, 0xFF	; 255
     34c:	7f 81       	ldd	r23, Y+7	; 0x07
     34e:	82 81       	ldd	r24, Z+2	; 0x02
     350:	7c 84       	ldd	r7, Y+12	; 0x0c
     352:	7e 83       	std	Y+6, r23	; 0x06
     354:	83 80       	ldd	r8, Z+3	; 0x03
     356:	7d 80       	ldd	r7, Y+5	; 0x05
     358:	8b 7b       	andi	r24, 0xBB	; 187
     35a:	82 82       	std	Z+2, r8	; 0x02
     35c:	79 86       	std	Y+9, r7	; 0x09
     35e:	7e 73       	andi	r23, 0x3E	; 62
     360:	83 7d       	andi	r24, 0xD3	; 211
     362:	80 88       	ldd	r8, Z+16	; 0x10
     364:	7e 82       	std	Y+6, r7	; 0x06
     366:	81 82       	std	Z+1, r8	; 0x01
     368:	83 83       	std	Z+3, r24	; 0x03
     36a:	7f 7b       	andi	r23, 0xBF	; 191
     36c:	85 7f       	andi	r24, 0xF5	; 245
     36e:	7c 84       	ldd	r7, Y+12	; 0x0c
     370:	7f 81       	ldd	r23, Y+7	; 0x07
     372:	85 7b       	andi	r24, 0xB5	; 181
     374:	85 82       	std	Z+5, r8	; 0x05
     376:	79 85       	ldd	r23, Y+9	; 0x09
     378:	7f 7d       	andi	r23, 0xDF	; 223
     37a:	7e 6b       	ori	r23, 0xBE	; 190
     37c:	84 7f       	andi	r24, 0xF4	; 244
     37e:	80 82       	st	Z, r8
     380:	84 8a       	std	Z+20, r8	; 0x14
     382:	82 84       	ldd	r8, Z+10	; 0x0a
     384:	82 8a       	std	Z+18, r8	; 0x12
     386:	84 75       	andi	r24, 0x54	; 84
     388:	83 7f       	andi	r24, 0xF3	; 243
     38a:	7e 7b       	andi	r23, 0xBE	; 190
     38c:	7e 87       	std	Y+14, r23	; 0x0e
     38e:	7e 78       	andi	r23, 0x8E	; 142
     390:	7c 81       	ldd	r23, Y+4	; 0x04
     392:	7c 79       	andi	r23, 0x9C	; 156
     394:	7a 81       	ldd	r23, Y+2	; 0x02
     396:	84 78       	andi	r24, 0x84	; 132
     398:	85 87       	std	Z+13, r24	; 0x0d
     39a:	82 82       	std	Z+2, r8	; 0x02
     39c:	7d 84       	ldd	r7, Y+13	; 0x0d
     39e:	88 7e       	andi	r24, 0xE8	; 232
     3a0:	83 85       	ldd	r24, Z+11	; 0x0b
     3a2:	81 83       	std	Z+1, r24	; 0x01
     3a4:	7b 83       	std	Y+3, r23	; 0x03
     3a6:	86 7e       	andi	r24, 0xE6	; 230
     3a8:	80 86       	std	Z+8, r8	; 0x08
     3aa:	7c 7d       	andi	r23, 0xDC	; 220
     3ac:	85 7b       	andi	r24, 0xB5	; 181
     3ae:	80 81       	ld	r24, Z
     3b0:	7c 87       	std	Y+12, r23	; 0x0c
     3b2:	7f 80       	ldd	r7, Y+7	; 0x07
     3b4:	84 7c       	andi	r24, 0xC4	; 196
     3b6:	83 82       	std	Z+3, r8	; 0x03
     3b8:	7d 83       	std	Y+5, r23	; 0x05
     3ba:	7e 7d       	andi	r23, 0xDE	; 222
     3bc:	81 7d       	andi	r24, 0xD1	; 209
     3be:	84 7c       	andi	r24, 0xC4	; 196
     3c0:	7c 81       	ldd	r23, Y+4	; 0x04
     3c2:	80 7e       	andi	r24, 0xE0	; 224
     3c4:	83 7f       	andi	r24, 0xF3	; 243
     3c6:	7f 82       	std	Y+7, r7	; 0x07
     3c8:	7d 80       	ldd	r7, Y+5	; 0x05
     3ca:	82 7e       	andi	r24, 0xE2	; 226
     3cc:	83 7d       	andi	r24, 0xD3	; 211
     3ce:	7e 81       	ldd	r23, Y+6	; 0x06
     3d0:	7b 83       	std	Y+3, r23	; 0x03
     3d2:	79 79       	andi	r23, 0x99	; 153
     3d4:	7d 80       	ldd	r7, Y+5	; 0x05
     3d6:	7e 7b       	andi	r23, 0xBE	; 190
     3d8:	80 7e       	andi	r24, 0xE0	; 224
     3da:	80 7f       	andi	r24, 0xF0	; 240
     3dc:	7a 82       	std	Y+2, r7	; 0x02
     3de:	84 7d       	andi	r24, 0xD4	; 212
     3e0:	7e 80       	ldd	r7, Y+6	; 0x06
     3e2:	86 85       	ldd	r24, Z+14	; 0x0e
     3e4:	7b 7c       	andi	r23, 0xCB	; 203
     3e6:	8b 80       	ldd	r8, Y+3	; 0x03
     3e8:	82 81       	ldd	r24, Z+2	; 0x02
     3ea:	89 91       	ld	r24, Y+
     3ec:	83 87       	std	Z+11, r24	; 0x0b
     3ee:	89 92       	st	Y+, r8
     3f0:	8b 83       	std	Y+3, r24	; 0x03
     3f2:	83 8d       	ldd	r24, Z+27	; 0x1b
     3f4:	8c 83       	std	Y+4, r24	; 0x04
     3f6:	82 74       	andi	r24, 0x42	; 66
     3f8:	76 7b       	andi	r23, 0xB6	; 182
     3fa:	71 6a       	ori	r23, 0xA1	; 161
     3fc:	68 7b       	andi	r22, 0xB8	; 184
     3fe:	76 78       	andi	r23, 0x86	; 134
     400:	80 83       	st	Z, r24
     402:	90 8b       	std	Z+16, r25	; 0x10
     404:	8a 85       	ldd	r24, Y+10	; 0x0a
     406:	8a 86       	std	Y+10, r8	; 0x0a
     408:	7f 77       	andi	r23, 0x7F	; 127
     40a:	7b 78       	andi	r23, 0x8B	; 139
     40c:	74 73       	andi	r23, 0x34	; 52
     40e:	77 7a       	andi	r23, 0xA7	; 167
     410:	7b 7f       	andi	r23, 0xFB	; 251
     412:	82 82       	std	Z+2, r8	; 0x02
     414:	87 84       	ldd	r8, Z+15	; 0x0f
     416:	80 82       	st	Z, r8
     418:	7d 7a       	andi	r23, 0xAD	; 173
     41a:	74 76       	andi	r23, 0x64	; 100
     41c:	74 74       	andi	r23, 0x44	; 68
     41e:	77 79       	andi	r23, 0x97	; 151
     420:	7e 83       	std	Y+6, r23	; 0x06
     422:	85 87       	std	Z+13, r24	; 0x0d
     424:	8c 8e       	std	Y+28, r8	; 0x1c
     426:	8d 8b       	std	Y+21, r24	; 0x15
     428:	8d 8c       	ldd	r8, Y+29	; 0x1d
     42a:	8c 8c       	ldd	r8, Y+28	; 0x1c
     42c:	8c 8c       	ldd	r8, Y+28	; 0x1c
     42e:	8c 8d       	ldd	r24, Y+28	; 0x1c
     430:	8f 91       	pop	r24
     432:	90 8f       	std	Z+24, r25	; 0x18
     434:	5d 66       	ori	r21, 0x6D	; 109
     436:	6d 72       	andi	r22, 0x2D	; 45
     438:	58 57       	subi	r21, 0x78	; 120
     43a:	72 75       	andi	r23, 0x52	; 82
     43c:	8f 8c       	ldd	r8, Y+31	; 0x1f
     43e:	89 95       	.word	0x9589	; ????
     440:	9f 93       	push	r25
     442:	80 78       	andi	r24, 0x80	; 128
     444:	81 77       	andi	r24, 0x71	; 113
     446:	67 70       	andi	r22, 0x07	; 7
     448:	73 87       	std	Z+11, r23	; 0x0b
     44a:	88 87       	std	Y+8, r24	; 0x08
     44c:	85 92       	las	Z, r8
     44e:	97 94       	ror	r9
     450:	80 7c       	andi	r24, 0xC0	; 192
     452:	7c 77       	andi	r23, 0x7C	; 124
     454:	74 65       	ori	r23, 0x54	; 84
     456:	69 6d       	ori	r22, 0xD9	; 217
     458:	75 79       	andi	r23, 0x95	; 149
     45a:	79 7c       	andi	r23, 0xC9	; 201
     45c:	7f 81       	ldd	r23, Y+7	; 0x07
     45e:	84 82       	std	Z+4, r8	; 0x04
     460:	7a 82       	std	Y+2, r7	; 0x02
     462:	84 82       	std	Z+4, r8	; 0x04
     464:	82 82       	std	Z+2, r8	; 0x02
     466:	81 84       	ldd	r8, Z+9	; 0x09
     468:	83 7f       	andi	r24, 0xF3	; 243
     46a:	7d 85       	ldd	r23, Y+13	; 0x0d
     46c:	8b 8b       	std	Y+19, r24	; 0x13
     46e:	8e 94 98 9b 	call	0x213730	; 0x213730 <_etext+0x210666>
     472:	9b 98       	cbi	0x13, 3	; 19
     474:	96 92       	lac	Z, r9
     476:	8b 8a       	std	Y+19, r8	; 0x13
     478:	5a 55       	subi	r21, 0x5A	; 90
     47a:	59 62       	ori	r21, 0x29	; 41
     47c:	61 58       	subi	r22, 0x81	; 129
     47e:	72 85       	ldd	r23, Z+10	; 0x0a
     480:	93 a0       	ldd	r9, Z+35	; 0x23
     482:	94 8f       	std	Z+28, r25	; 0x1c
     484:	95 90       	lpm	r9, Z+
     486:	77 6c       	ori	r23, 0xC7	; 199
     488:	60 6e       	ori	r22, 0xE0	; 224
     48a:	6b 72       	andi	r22, 0x2B	; 43
     48c:	78 84       	ldd	r7, Y+8	; 0x08
     48e:	99 a5       	ldd	r25, Y+41	; 0x29
     490:	a1 90       	ld	r10, Z+
     492:	8a 86       	std	Y+10, r8	; 0x0a
     494:	82 6c       	ori	r24, 0xC2	; 194
     496:	5f 63       	ori	r21, 0x3F	; 63
     498:	65 74       	andi	r22, 0x45	; 69
     49a:	73 77       	andi	r23, 0x73	; 115
     49c:	7b 8a       	std	Y+19, r7	; 0x13
     49e:	8f 89       	ldd	r24, Y+23	; 0x17
     4a0:	7e 7e       	andi	r23, 0xEE	; 238
     4a2:	84 84       	ldd	r8, Z+12	; 0x0c
     4a4:	7e 71       	andi	r23, 0x1E	; 30
     4a6:	73 80       	ldd	r7, Z+3	; 0x03
     4a8:	86 85       	ldd	r24, Z+14	; 0x0e
     4aa:	78 7a       	andi	r23, 0xA8	; 168
     4ac:	81 8a       	std	Z+17, r8	; 0x11
     4ae:	86 80       	ldd	r8, Z+6	; 0x06
     4b0:	83 8a       	std	Z+19, r8	; 0x13
     4b2:	91 93       	st	Z+, r25
     4b4:	92 89       	ldd	r25, Z+18	; 0x12
     4b6:	8c 8e       	std	Y+28, r8	; 0x1c
     4b8:	8e 86       	std	Y+14, r8	; 0x0e
     4ba:	82 8c       	ldd	r8, Z+26	; 0x1a
     4bc:	8c 98       	cbi	0x11, 4	; 17
     4be:	9a 5a       	subi	r25, 0xAA	; 170
     4c0:	5a 58       	subi	r21, 0x8A	; 138
     4c2:	76 6a       	ori	r23, 0xA6	; 166
     4c4:	60 5a       	subi	r22, 0xA0	; 160
     4c6:	7e 92       	st	-X, r7
     4c8:	a5 99       	sbic	0x14, 5	; 20
     4ca:	86 8c       	ldd	r8, Z+30	; 0x1e
     4cc:	8f 8b       	std	Y+23, r24	; 0x17
     4ce:	70 5d       	subi	r23, 0xD0	; 208
     4d0:	68 74       	andi	r22, 0x48	; 72
     4d2:	79 82       	std	Y+1, r7	; 0x01
     4d4:	88 88       	ldd	r8, Y+16	; 0x10
     4d6:	9d 9e       	mul	r9, r29
     4d8:	82 7c       	andi	r24, 0xC2	; 194
     4da:	72 78       	andi	r23, 0x82	; 130
     4dc:	6f 6a       	ori	r22, 0xAF	; 175
     4de:	61 6e       	ori	r22, 0xE1	; 225
     4e0:	7b 87       	std	Y+11, r23	; 0x0b
     4e2:	87 78       	andi	r24, 0x87	; 135
     4e4:	83 90       	.word	0x9083	; ????
     4e6:	93 7f       	andi	r25, 0xF3	; 243
     4e8:	70 78       	andi	r23, 0x80	; 128
     4ea:	7e 7f       	andi	r23, 0xFE	; 254
     4ec:	7f 76       	andi	r23, 0x6F	; 111
     4ee:	78 86       	std	Y+8, r7	; 0x08
     4f0:	8e 7f       	andi	r24, 0xFE	; 254
     4f2:	7b 7a       	andi	r23, 0xAB	; 171
     4f4:	88 88       	ldd	r8, Y+16	; 0x10
     4f6:	86 86       	std	Z+14, r8	; 0x0e
     4f8:	8a 92       	st	-Y, r8
     4fa:	99 99       	sbic	0x13, 1	; 19
     4fc:	91 92       	st	Z+, r9
     4fe:	97 9f       	mul	r25, r23
     500:	98 79       	andi	r25, 0x98	; 152
     502:	66 52       	subi	r22, 0x26	; 38
     504:	5c 68       	ori	r21, 0x8C	; 140
     506:	68 53       	subi	r22, 0x38	; 56
     508:	6b 8b       	std	Y+19, r22	; 0x13
     50a:	93 9e       	mul	r9, r19
     50c:	95 8d       	ldd	r25, Z+29	; 0x1d
     50e:	8a 89       	ldd	r24, Y+18	; 0x12
     510:	7a 67       	ori	r23, 0x7A	; 122
     512:	61 68       	ori	r22, 0x81	; 129
     514:	78 7d       	andi	r23, 0xD8	; 216
     516:	8a 8e       	std	Y+26, r8	; 0x1a
     518:	93 99       	sbic	0x12, 3	; 18
     51a:	98 91       	.word	0x9198	; ????
     51c:	83 77       	andi	r24, 0x73	; 115
     51e:	6f 70       	andi	r22, 0x0F	; 15
     520:	6a 6d       	ori	r22, 0xDA	; 218
     522:	6f 78       	andi	r22, 0x8F	; 143
     524:	7e 7f       	andi	r23, 0xFE	; 254
     526:	7e 7e       	andi	r23, 0xEE	; 238
     528:	81 82       	std	Z+1, r8	; 0x01
     52a:	7b 75       	andi	r23, 0x5B	; 91
     52c:	79 7f       	andi	r23, 0xF9	; 249
     52e:	83 85       	ldd	r24, Z+11	; 0x0b
     530:	84 81       	ldd	r24, Z+4	; 0x04
     532:	83 83       	std	Z+3, r24	; 0x03
     534:	84 7d       	andi	r24, 0xD4	; 212
     536:	7a 7f       	andi	r23, 0xFA	; 250
     538:	80 82       	st	Z, r8
     53a:	84 8a       	std	Z+20, r8	; 0x14
     53c:	8b 8e       	std	Y+27, r8	; 0x1b
     53e:	94 95       	.word	0x9594	; ????
     540:	93 90       	.word	0x9093	; ????
     542:	94 97       	sbiw	r26, 0x24	; 36
     544:	93 9b       	sbis	0x12, 3	; 18
     546:	85 6f       	ori	r24, 0xF5	; 245
     548:	53 57       	subi	r21, 0x73	; 115
     54a:	62 6a       	ori	r22, 0xA2	; 162
     54c:	62 70       	andi	r22, 0x02	; 2
     54e:	84 93       	xch	Z, r24
     550:	a6 a2       	std	Z+38, r10	; 0x26
     552:	8d 83       	std	Y+5, r24	; 0x05
     554:	7f 78       	andi	r23, 0x8F	; 143
     556:	6c 63       	ori	r22, 0x3C	; 60
     558:	62 6f       	ori	r22, 0xF2	; 242
     55a:	7e 8e       	std	Y+30, r7	; 0x1e
     55c:	96 92       	lac	Z, r9
     55e:	95 8a       	std	Z+21, r9	; 0x15
     560:	87 7e       	andi	r24, 0xE7	; 231
     562:	73 70       	andi	r23, 0x03	; 3
     564:	6b 6d       	ori	r22, 0xDB	; 219
     566:	71 7c       	andi	r23, 0xC1	; 193
     568:	7d 7e       	andi	r23, 0xED	; 237
     56a:	7f 80       	ldd	r7, Y+7	; 0x07
     56c:	7f 81       	ldd	r23, Y+7	; 0x07
     56e:	81 7b       	andi	r24, 0xB1	; 177
     570:	78 7d       	andi	r23, 0xD8	; 216
     572:	82 7f       	andi	r24, 0xF2	; 242
     574:	7f 82       	std	Y+7, r7	; 0x07
     576:	82 85       	ldd	r24, Z+10	; 0x0a
     578:	85 85       	ldd	r24, Z+13	; 0x0d
     57a:	80 7d       	andi	r24, 0xD0	; 208
     57c:	81 81       	ldd	r24, Z+1	; 0x01
     57e:	82 85       	ldd	r24, Z+10	; 0x0a
     580:	88 87       	std	Y+8, r24	; 0x08
     582:	90 94       	com	r9
     584:	96 97       	sbiw	r26, 0x26	; 38
     586:	97 9b       	sbis	0x12, 7	; 18
     588:	a1 88       	ldd	r10, Z+17	; 0x11
     58a:	6e 56       	subi	r22, 0x6E	; 110
     58c:	5b 63       	ori	r21, 0x3B	; 59
     58e:	6d 5e       	subi	r22, 0xED	; 237
     590:	60 80       	ld	r6, Z
     592:	86 ae       	std	Z+62, r8	; 0x3e
     594:	a1 8c       	ldd	r10, Z+25	; 0x19
     596:	84 84       	ldd	r8, Z+12	; 0x0c
     598:	78 74       	andi	r23, 0x48	; 72
     59a:	67 5f       	subi	r22, 0xF7	; 247
     59c:	6a 80       	ldd	r6, Y+2	; 0x02
     59e:	87 96       	adiw	r24, 0x27	; 39
     5a0:	8d 93       	st	X+, r24
     5a2:	92 89       	ldd	r25, Z+18	; 0x12
     5a4:	83 78       	andi	r24, 0x83	; 131
     5a6:	74 72       	andi	r23, 0x24	; 36
     5a8:	74 76       	andi	r23, 0x64	; 100
     5aa:	7a 7b       	andi	r23, 0xBA	; 186
     5ac:	7f 7c       	andi	r23, 0xCF	; 207
     5ae:	7a 76       	andi	r23, 0x6A	; 106
     5b0:	7c 7c       	andi	r23, 0xCC	; 204
     5b2:	7d 7b       	andi	r23, 0xBD	; 189
     5b4:	7d 85       	ldd	r23, Y+13	; 0x0d
     5b6:	88 89       	ldd	r24, Y+16	; 0x10
     5b8:	84 7f       	andi	r24, 0xF4	; 244
     5ba:	7e 81       	ldd	r23, Y+6	; 0x06
     5bc:	81 81       	ldd	r24, Z+1	; 0x01
     5be:	7a 7f       	andi	r23, 0xFA	; 250
     5c0:	84 83       	std	Z+4, r24	; 0x04
     5c2:	85 87       	std	Z+13, r24	; 0x0d
     5c4:	88 8c       	ldd	r8, Y+24	; 0x18
     5c6:	93 95       	inc	r25
     5c8:	94 93       	xch	Z, r25
     5ca:	9c 9e       	mul	r9, r28
     5cc:	8b 7b       	andi	r24, 0xBB	; 187
     5ce:	58 62       	ori	r21, 0x28	; 40
     5d0:	69 6f       	ori	r22, 0xF9	; 249
     5d2:	64 71       	andi	r22, 0x14	; 20
     5d4:	7e 8a       	std	Y+22, r7	; 0x16
     5d6:	9a 95       	dec	r25
     5d8:	88 80       	ld	r8, Y
     5da:	79 7a       	andi	r23, 0xA9	; 169
     5dc:	74 6c       	ori	r23, 0xC4	; 196
     5de:	6d 77       	andi	r22, 0x7D	; 125
     5e0:	83 8c       	ldd	r8, Z+27	; 0x1b
     5e2:	93 89       	ldd	r25, Z+19	; 0x13
     5e4:	89 88       	ldd	r8, Y+17	; 0x11
     5e6:	82 7e       	andi	r24, 0xE2	; 226
     5e8:	79 75       	andi	r23, 0x59	; 89
     5ea:	78 7a       	andi	r23, 0xA8	; 168
     5ec:	7c 7f       	andi	r23, 0xFC	; 252
     5ee:	7b 7b       	andi	r23, 0xBB	; 187
     5f0:	7a 7a       	andi	r23, 0xAA	; 170
     5f2:	77 7c       	andi	r23, 0xC7	; 199
     5f4:	79 7e       	andi	r23, 0xE9	; 233
     5f6:	7c 81       	ldd	r23, Y+4	; 0x04
     5f8:	84 87       	std	Z+12, r24	; 0x0c
     5fa:	84 82       	std	Z+4, r8	; 0x04
     5fc:	7f 7f       	andi	r23, 0xFF	; 255
     5fe:	80 81       	ld	r24, Z
     600:	80 7f       	andi	r24, 0xF0	; 240
     602:	80 84       	ldd	r8, Z+8	; 0x08
     604:	86 88       	ldd	r8, Z+22	; 0x16
     606:	8a 85       	ldd	r24, Y+10	; 0x0a
     608:	8d 8c       	ldd	r8, Y+29	; 0x1d
     60a:	92 97       	sbiw	r26, 0x22	; 34
     60c:	95 9b       	sbis	0x12, 5	; 18
     60e:	a1 74       	andi	r26, 0x41	; 65
     610:	71 5f       	subi	r23, 0xF1	; 241
     612:	63 73       	andi	r22, 0x33	; 51
     614:	6e 66       	ori	r22, 0x6E	; 110
     616:	77 7d       	andi	r23, 0xD7	; 215
     618:	93 96       	adiw	r26, 0x23	; 35
     61a:	93 81       	ldd	r25, Z+3	; 0x03
     61c:	81 78       	andi	r24, 0x81	; 129
     61e:	73 6c       	ori	r23, 0xC3	; 195
     620:	6d 6e       	ori	r22, 0xED	; 237
     622:	79 86       	std	Y+9, r7	; 0x09
     624:	8e 8f       	std	Y+30, r24	; 0x1e
     626:	88 8a       	std	Y+16, r8	; 0x10
     628:	84 81       	ldd	r24, Z+4	; 0x04
     62a:	7b 78       	andi	r23, 0x8B	; 139
     62c:	75 7b       	andi	r23, 0xB5	; 181
     62e:	7c 80       	ldd	r7, Y+4	; 0x04
     630:	81 7d       	andi	r24, 0xD1	; 209
     632:	7f 7b       	andi	r23, 0xBF	; 191
     634:	79 7a       	andi	r23, 0xA9	; 169
     636:	7c 78       	andi	r23, 0x8C	; 140
     638:	7d 7c       	andi	r23, 0xCD	; 205
     63a:	80 82       	st	Z, r8
     63c:	85 82       	std	Z+5, r8	; 0x05
     63e:	82 7e       	andi	r24, 0xE2	; 226
     640:	7f 7f       	andi	r23, 0xFF	; 255
     642:	81 80       	ldd	r8, Z+1	; 0x01
     644:	7f 80       	ldd	r7, Y+7	; 0x07
     646:	82 86       	std	Z+10, r8	; 0x0a
     648:	85 86       	std	Z+13, r8	; 0x0d
     64a:	86 8c       	ldd	r8, Z+30	; 0x1e
     64c:	8f 93       	push	r24
     64e:	94 94       	.word	0x9494	; ????
     650:	99 9c       	mul	r9, r9
     652:	7b 78       	andi	r23, 0x8B	; 139
     654:	6c 65       	ori	r22, 0x5C	; 92
     656:	71 6f       	ori	r23, 0xF1	; 241
     658:	6c 7e       	andi	r22, 0xEC	; 236
     65a:	81 91       	ld	r24, Z+
     65c:	93 8c       	ldd	r9, Z+27	; 0x1b
     65e:	81 7f       	andi	r24, 0xF1	; 241
     660:	75 75       	andi	r23, 0x55	; 85
     662:	69 70       	andi	r22, 0x09	; 9
     664:	73 7c       	andi	r23, 0xC3	; 195
     666:	84 8a       	std	Z+20, r8	; 0x14
     668:	8c 8b       	std	Y+20, r24	; 0x14
     66a:	87 85       	ldd	r24, Z+15	; 0x0f
     66c:	80 7a       	andi	r24, 0xA0	; 160
     66e:	79 77       	andi	r23, 0x79	; 121
     670:	7d 7c       	andi	r23, 0xCD	; 205
     672:	7f 7f       	andi	r23, 0xFF	; 255
     674:	7d 80       	ldd	r7, Y+5	; 0x05
     676:	7b 76       	andi	r23, 0x6B	; 107
     678:	7a 7d       	andi	r23, 0xDA	; 218
     67a:	7c 7e       	andi	r23, 0xEC	; 236
     67c:	7b 80       	ldd	r7, Y+3	; 0x03
     67e:	83 84       	ldd	r8, Z+11	; 0x0b
     680:	82 80       	ldd	r8, Z+2	; 0x02
     682:	7b 7f       	andi	r23, 0xFB	; 251
     684:	81 82       	std	Z+1, r8	; 0x01
     686:	82 7d       	andi	r24, 0xD2	; 210
     688:	7e 82       	std	Y+6, r7	; 0x06
     68a:	84 89       	ldd	r24, Z+20	; 0x14
     68c:	86 86       	std	Z+14, r8	; 0x0e
     68e:	8c 8e       	std	Y+28, r8	; 0x1c
     690:	93 91       	.word	0x9193	; ????
     692:	8f 94 95 81 	call	0x23032a	; 0x23032a <_etext+0x22d260>
     696:	82 6d       	ori	r24, 0xD2	; 210
     698:	6c 77       	andi	r22, 0x7C	; 124
     69a:	72 6c       	ori	r23, 0xC2	; 194
     69c:	7c 7c       	andi	r23, 0xCC	; 204
     69e:	86 8f       	std	Z+30, r24	; 0x1e
     6a0:	8b 81       	ldd	r24, Y+3	; 0x03
     6a2:	81 7e       	andi	r24, 0xE1	; 225
     6a4:	75 75       	andi	r23, 0x55	; 85
     6a6:	71 73       	andi	r23, 0x31	; 49
     6a8:	7c 81       	ldd	r23, Y+4	; 0x04
     6aa:	84 88       	ldd	r8, Z+20	; 0x14
     6ac:	86 89       	ldd	r24, Z+22	; 0x16
     6ae:	84 82       	std	Z+4, r8	; 0x04
     6b0:	7c 7a       	andi	r23, 0xAC	; 172
     6b2:	7a 7d       	andi	r23, 0xDA	; 218
     6b4:	7a 7a       	andi	r23, 0xAA	; 170
     6b6:	7d 7e       	andi	r23, 0xED	; 237
     6b8:	7e 7c       	andi	r23, 0xCE	; 206
     6ba:	7a 7b       	andi	r23, 0xBA	; 186
     6bc:	7d 80       	ldd	r7, Y+5	; 0x05
     6be:	80 7d       	andi	r24, 0xD0	; 208
     6c0:	80 82       	st	Z, r8
     6c2:	82 82       	std	Z+2, r8	; 0x02
     6c4:	7f 7d       	andi	r23, 0xDF	; 223
     6c6:	7d 80       	ldd	r7, Y+5	; 0x05
     6c8:	82 80       	ldd	r8, Z+2	; 0x02
     6ca:	7f 7f       	andi	r23, 0xFF	; 255
     6cc:	81 82       	std	Z+1, r8	; 0x01
     6ce:	86 84       	ldd	r8, Z+14	; 0x0e
     6d0:	84 88       	ldd	r8, Z+20	; 0x14
     6d2:	89 8f       	std	Y+25, r24	; 0x19
     6d4:	90 90 91 92 	lds	r9, 0x9291
     6d8:	9b 81       	ldd	r25, Y+3	; 0x03
     6da:	88 66       	ori	r24, 0x68	; 104
     6dc:	67 79       	andi	r22, 0x97	; 151
     6de:	6c 6f       	ori	r22, 0xFC	; 252
     6e0:	73 77       	andi	r23, 0x73	; 115
     6e2:	84 8e       	std	Z+28, r8	; 0x1c
     6e4:	90 83       	st	Z, r25
     6e6:	87 80       	ldd	r8, Z+7	; 0x07
     6e8:	76 75       	andi	r23, 0x56	; 86
     6ea:	74 70       	andi	r23, 0x04	; 4
     6ec:	79 7e       	andi	r23, 0xE9	; 233
     6ee:	82 83       	std	Z+2, r24	; 0x02
     6f0:	88 86       	std	Y+8, r8	; 0x08
     6f2:	87 83       	std	Z+7, r24	; 0x07
     6f4:	7f 7d       	andi	r23, 0xDF	; 223
     6f6:	7d 7e       	andi	r23, 0xED	; 237
     6f8:	7b 77       	andi	r23, 0x7B	; 123
     6fa:	79 7a       	andi	r23, 0xA9	; 169
     6fc:	7d 7b       	andi	r23, 0xBD	; 189
     6fe:	7c 79       	andi	r23, 0x9C	; 156
     700:	7f 82       	std	Y+7, r7	; 0x07
     702:	81 7e       	andi	r24, 0xE1	; 225
     704:	81 82       	std	Z+1, r8	; 0x01
     706:	83 82       	std	Z+3, r8	; 0x03
     708:	7e 7c       	andi	r23, 0xCE	; 206
     70a:	7f 81       	ldd	r23, Y+7	; 0x07
     70c:	82 7f       	andi	r24, 0xF2	; 242
     70e:	7c 7f       	andi	r23, 0xFC	; 252
     710:	80 84       	ldd	r8, Z+8	; 0x08
     712:	83 80       	ldd	r8, Z+3	; 0x03
     714:	82 87       	std	Z+10, r24	; 0x0a
     716:	8b 8d       	ldd	r24, Y+27	; 0x1b
     718:	8c 8c       	ldd	r8, Y+28	; 0x1c
     71a:	90 96       	adiw	r26, 0x20	; 32
     71c:	94 9c       	mul	r9, r4
     71e:	83 78       	andi	r24, 0x83	; 131
     720:	76 6a       	ori	r23, 0xA6	; 166
     722:	76 6d       	ori	r23, 0xD6	; 214
     724:	69 71       	andi	r22, 0x19	; 25
     726:	79 85       	ldd	r23, Y+9	; 0x09
     728:	88 8a       	std	Y+16, r8	; 0x10
     72a:	85 83       	std	Z+5, r24	; 0x05
     72c:	81 7d       	andi	r24, 0xD1	; 209
     72e:	76 76       	andi	r23, 0x66	; 102
     730:	75 79       	andi	r23, 0x95	; 149
     732:	7b 7f       	andi	r23, 0xFB	; 251
     734:	7f 85       	ldd	r23, Y+15	; 0x0f
     736:	86 84       	ldd	r8, Z+14	; 0x0e
     738:	83 82       	std	Z+3, r8	; 0x03
     73a:	80 80       	ld	r8, Z
     73c:	7d 7c       	andi	r23, 0xCD	; 205
     73e:	7a 7c       	andi	r23, 0xCA	; 202
     740:	7a 7d       	andi	r23, 0xDA	; 218
     742:	79 7c       	andi	r23, 0xC9	; 201
     744:	81 7f       	andi	r24, 0xF1	; 241
     746:	82 81       	ldd	r24, Z+2	; 0x02
     748:	80 83       	st	Z, r24
     74a:	84 81       	ldd	r24, Z+4	; 0x04
     74c:	7e 7b       	andi	r23, 0xBE	; 190
     74e:	7d 81       	ldd	r23, Y+5	; 0x05
     750:	81 80       	ldd	r8, Z+1	; 0x01
     752:	7d 7e       	andi	r23, 0xED	; 237
     754:	81 82       	std	Z+1, r8	; 0x01
     756:	7e 80       	ldd	r7, Y+6	; 0x06
     758:	7f 82       	std	Y+7, r7	; 0x07
     75a:	84 88       	ldd	r8, Z+20	; 0x14
     75c:	8b 88       	ldd	r8, Y+19	; 0x13
     75e:	8e 8c       	ldd	r8, Y+30	; 0x1e
     760:	91 92       	st	Z+, r9
     762:	94 99       	sbic	0x12, 4	; 18
     764:	83 83       	std	Z+3, r24	; 0x03
     766:	71 71       	andi	r23, 0x11	; 17
     768:	79 69       	ori	r23, 0x99	; 153
     76a:	6c 71       	andi	r22, 0x1C	; 28
     76c:	77 82       	std	Z+7, r7	; 0x07
     76e:	82 87       	std	Z+10, r24	; 0x0a
     770:	82 86       	std	Z+10, r8	; 0x0a
     772:	84 80       	ldd	r8, Z+4	; 0x04
     774:	7a 77       	andi	r23, 0x7A	; 122
     776:	75 79       	andi	r23, 0x95	; 149
     778:	78 7e       	andi	r23, 0xE8	; 232
     77a:	7a 89       	ldd	r23, Y+18	; 0x12
     77c:	82 85       	ldd	r24, Z+10	; 0x0a
     77e:	80 82       	st	Z, r8
     780:	82 7f       	andi	r24, 0xF2	; 242
     782:	81 7b       	andi	r24, 0xB1	; 177
     784:	7a 7c       	andi	r23, 0xCA	; 202
     786:	7c 80       	ldd	r7, Y+4	; 0x04
     788:	7c 7f       	andi	r23, 0xFC	; 252
     78a:	7d 82       	std	Y+5, r7	; 0x05
     78c:	81 7f       	andi	r24, 0xF1	; 241
     78e:	7f 80       	ldd	r7, Y+7	; 0x07
     790:	80 7e       	andi	r24, 0xE0	; 224
     792:	7d 7d       	andi	r23, 0xDD	; 221
     794:	80 82       	st	Z, r8
     796:	80 7e       	andi	r24, 0xE0	; 224
     798:	7e 7e       	andi	r23, 0xEE	; 238
     79a:	80 7e       	andi	r24, 0xE0	; 224
     79c:	7b 7c       	andi	r23, 0xCB	; 203
     79e:	82 84       	ldd	r8, Z+10	; 0x0a
     7a0:	85 81       	ldd	r24, Z+5	; 0x05
     7a2:	87 87       	std	Z+15, r24	; 0x0f
     7a4:	8b 8e       	std	Y+27, r8	; 0x1b
     7a6:	88 8b       	std	Y+16, r24	; 0x10
     7a8:	8c 91       	ld	r24, X
     7aa:	8f 8e       	std	Y+31, r8	; 0x1f
     7ac:	83 83       	std	Z+3, r24	; 0x03
     7ae:	7b 7b       	andi	r23, 0xBB	; 187
     7b0:	79 73       	andi	r23, 0x39	; 57
     7b2:	70 74       	andi	r23, 0x40	; 64
     7b4:	78 7d       	andi	r23, 0xD8	; 216
     7b6:	7d 7f       	andi	r23, 0xFD	; 253
     7b8:	80 84       	ldd	r8, Z+8	; 0x08
     7ba:	83 80       	ldd	r8, Z+3	; 0x03
     7bc:	7c 7b       	andi	r23, 0xBC	; 188
     7be:	7d 7c       	andi	r23, 0xCD	; 205
     7c0:	7a 7d       	andi	r23, 0xDA	; 218
     7c2:	7b 81       	ldd	r23, Y+3	; 0x03
     7c4:	80 80       	ld	r8, Z
     7c6:	80 7f       	andi	r24, 0xF0	; 240
     7c8:	81 80       	ldd	r8, Z+1	; 0x01
     7ca:	81 7e       	andi	r24, 0xE1	; 225
     7cc:	7f 7f       	andi	r23, 0xFF	; 255
     7ce:	80 7e       	andi	r24, 0xE0	; 224
     7d0:	7d 7e       	andi	r23, 0xED	; 237
     7d2:	7f 82       	std	Y+7, r7	; 0x07
     7d4:	7f 80       	ldd	r7, Y+7	; 0x07
     7d6:	7d 81       	ldd	r23, Y+5	; 0x05
     7d8:	7e 7e       	andi	r23, 0xEE	; 238
     7da:	7e 7f       	andi	r23, 0xFE	; 254
     7dc:	83 80       	ldd	r8, Z+3	; 0x03
     7de:	7e 7c       	andi	r23, 0xCE	; 206
     7e0:	7e 7f       	andi	r23, 0xFE	; 254
     7e2:	7d 81       	ldd	r23, Y+5	; 0x05
     7e4:	7c 83       	std	Y+4, r23	; 0x04
     7e6:	83 82       	std	Z+3, r8	; 0x03
     7e8:	87 85       	ldd	r24, Z+15	; 0x0f
     7ea:	81 89       	ldd	r24, Z+17	; 0x11
     7ec:	85 89       	ldd	r24, Z+21	; 0x15
     7ee:	81 86       	std	Z+9, r8	; 0x09
     7f0:	85 87       	std	Z+13, r24	; 0x0d
     7f2:	85 89       	ldd	r24, Z+21	; 0x15
     7f4:	82 85       	ldd	r24, Z+10	; 0x0a
     7f6:	85 84       	ldd	r8, Z+13	; 0x0d
     7f8:	83 7e       	andi	r24, 0xE3	; 227
     7fa:	7f 7d       	andi	r23, 0xDF	; 223
     7fc:	7c 7d       	andi	r23, 0xDC	; 220
     7fe:	7b 78       	andi	r23, 0x8B	; 139
     800:	7d 7b       	andi	r23, 0xBD	; 189
     802:	7d 82       	std	Y+5, r7	; 0x05
     804:	7d 7f       	andi	r23, 0xFD	; 253
     806:	7d 80       	ldd	r7, Y+5	; 0x05
     808:	81 7f       	andi	r24, 0xF1	; 241
     80a:	80 80       	ld	r8, Z
     80c:	7d 80       	ldd	r7, Y+5	; 0x05
     80e:	7d 7e       	andi	r23, 0xED	; 237
     810:	7c 7b       	andi	r23, 0xBC	; 188
     812:	7c 7d       	andi	r23, 0xDC	; 220
     814:	80 7b       	andi	r24, 0xB0	; 176
     816:	83 7c       	andi	r24, 0xC3	; 195
     818:	81 7f       	andi	r24, 0xF1	; 241
     81a:	83 86       	std	Z+11, r8	; 0x0b
     81c:	7e 83       	std	Y+6, r23	; 0x06
     81e:	80 81       	ld	r24, Z
     820:	81 82       	std	Z+1, r8	; 0x01
     822:	81 80       	ldd	r8, Z+1	; 0x01
     824:	7c 89       	ldd	r23, Y+20	; 0x14
     826:	7a 81       	ldd	r23, Y+2	; 0x02
     828:	86 7c       	andi	r24, 0xC6	; 198
     82a:	8e 79       	andi	r24, 0x9E	; 158
     82c:	86 94       	lsr	r8
     82e:	73 84       	ldd	r7, Z+11	; 0x0b
     830:	82 85       	ldd	r24, Z+10	; 0x0a
     832:	73 7d       	andi	r23, 0xD3	; 211
     834:	79 8d       	ldd	r23, Y+25	; 0x19
     836:	6f 89       	ldd	r22, Y+23	; 0x17
     838:	79 8a       	std	Y+17, r7	; 0x11
     83a:	74 81       	ldd	r23, Z+4	; 0x04
     83c:	78 91       	.word	0x9178	; ????
     83e:	6d 91       	ld	r22, X+
     840:	6f 8a       	std	Y+23, r6	; 0x17
     842:	76 8d       	ldd	r23, Z+30	; 0x1e
     844:	6d 8b       	std	Y+21, r22	; 0x15
     846:	71 94       	neg	r7
     848:	6e 95 83 89 	call	0x591306	; 0x591306 <_etext+0x58e23c>
     84c:	85 76       	andi	r24, 0x65	; 101
     84e:	89 7b       	andi	r24, 0xB9	; 185
     850:	87 73       	andi	r24, 0x37	; 55
     852:	86 7c       	andi	r24, 0xC6	; 198
     854:	86 79       	andi	r24, 0x96	; 150
     856:	7e 81       	ldd	r23, Y+6	; 0x06
     858:	81 84       	ldd	r8, Z+9	; 0x09
     85a:	74 80       	ldd	r7, Z+4	; 0x04
     85c:	77 7e       	andi	r23, 0xE7	; 231
     85e:	7b 83       	std	Y+3, r23	; 0x03
     860:	75 82       	std	Z+5, r7	; 0x05
     862:	7b 7e       	andi	r23, 0xEB	; 235
     864:	7f 80       	ldd	r7, Y+7	; 0x07
     866:	8a 74       	andi	r24, 0x4A	; 74
     868:	88 80       	ld	r8, Y
     86a:	8a 7c       	andi	r24, 0xCA	; 202
     86c:	85 75       	andi	r24, 0x55	; 85
     86e:	80 82       	st	Z, r8
     870:	85 7b       	andi	r24, 0xB5	; 181
     872:	84 85       	ldd	r24, Z+12	; 0x0c
     874:	7b 82       	std	Y+3, r7	; 0x03
     876:	80 97       	sbiw	r24, 0x20	; 32
     878:	6b 89       	ldd	r22, Y+19	; 0x13
     87a:	88 85       	ldd	r24, Y+8	; 0x08
     87c:	86 79       	andi	r24, 0x96	; 150
     87e:	82 7b       	andi	r24, 0xB2	; 178
     880:	7a 8a       	std	Y+18, r7	; 0x12
     882:	8a 83       	std	Y+2, r24	; 0x02
     884:	7e 7e       	andi	r23, 0xEE	; 238
     886:	99 6e       	ori	r25, 0xE9	; 233
     888:	86 70       	andi	r24, 0x06	; 6
     88a:	82 87       	std	Z+10, r24	; 0x0a
     88c:	80 80       	ld	r8, Z
     88e:	87 81       	ldd	r24, Z+7	; 0x07
     890:	8e 78       	andi	r24, 0x8E	; 142
     892:	8a 8a       	std	Y+18, r8	; 0x12
     894:	7d 7e       	andi	r23, 0xED	; 237
     896:	82 89       	ldd	r24, Z+18	; 0x12
     898:	79 80       	ldd	r7, Y+1	; 0x01
     89a:	85 93       	las	Z, r24
     89c:	79 82       	std	Y+1, r7	; 0x01
     89e:	7a 80       	ldd	r7, Y+2	; 0x02
     8a0:	76 8c       	ldd	r7, Z+30	; 0x1e
     8a2:	7f 7b       	andi	r23, 0xBF	; 191
     8a4:	86 7a       	andi	r24, 0xA6	; 166
     8a6:	86 8c       	ldd	r8, Z+30	; 0x1e
     8a8:	89 6a       	ori	r24, 0xA9	; 169
     8aa:	94 83       	std	Z+4, r25	; 0x04
     8ac:	77 81       	ldd	r23, Z+7	; 0x07
     8ae:	7b 80       	ldd	r7, Y+3	; 0x03
     8b0:	79 7f       	andi	r23, 0xF9	; 249
     8b2:	7f 8b       	std	Y+23, r23	; 0x17
     8b4:	7b 7a       	andi	r23, 0xAB	; 171
     8b6:	86 85       	ldd	r24, Z+14	; 0x0e
     8b8:	7d 7e       	andi	r23, 0xED	; 237
     8ba:	82 9e       	mul	r8, r18
     8bc:	8b 88       	ldd	r8, Y+19	; 0x13
     8be:	80 81       	ld	r24, Z
     8c0:	84 84       	ldd	r8, Z+12	; 0x0c
     8c2:	81 77       	andi	r24, 0x71	; 113
     8c4:	81 81       	ldd	r24, Z+1	; 0x01
     8c6:	83 7a       	andi	r24, 0xA3	; 163
     8c8:	7b 72       	andi	r23, 0x2B	; 43
     8ca:	8e 77       	andi	r24, 0x7E	; 126
     8cc:	6b 70       	andi	r22, 0x0B	; 11
     8ce:	7b 81       	ldd	r23, Y+3	; 0x03
     8d0:	85 81       	ldd	r24, Z+5	; 0x05
     8d2:	95 70       	andi	r25, 0x05	; 5
     8d4:	92 70       	andi	r25, 0x02	; 2
     8d6:	87 7d       	andi	r24, 0xD7	; 215
     8d8:	85 7b       	andi	r24, 0xB5	; 181
     8da:	7b 8f       	std	Y+27, r23	; 0x1b
     8dc:	71 72       	andi	r23, 0x21	; 33
     8de:	75 9a       	sbi	0x0e, 5	; 14
     8e0:	8c 75       	andi	r24, 0x5C	; 92
     8e2:	85 83       	std	Z+5, r24	; 0x05
     8e4:	88 74       	andi	r24, 0x48	; 72
     8e6:	7a 85       	ldd	r23, Y+10	; 0x0a
     8e8:	71 7f       	andi	r23, 0xF1	; 241
     8ea:	8f 73       	andi	r24, 0x3F	; 63
     8ec:	85 83       	std	Z+5, r24	; 0x05
     8ee:	7c 7d       	andi	r23, 0xDC	; 220
     8f0:	7f 97       	sbiw	r30, 0x1f	; 31
     8f2:	76 85       	ldd	r23, Z+14	; 0x0e
     8f4:	75 88       	ldd	r7, Z+21	; 0x15
     8f6:	87 70       	andi	r24, 0x07	; 7
     8f8:	8e 6f       	ori	r24, 0xFE	; 254
     8fa:	8c 7f       	andi	r24, 0xFC	; 252
     8fc:	86 81       	ldd	r24, Z+6	; 0x06
     8fe:	75 8c       	ldd	r7, Z+29	; 0x1d
     900:	72 81       	ldd	r23, Z+2	; 0x02
     902:	83 6b       	ori	r24, 0xB3	; 179
     904:	88 7a       	andi	r24, 0xA8	; 168
     906:	83 7d       	andi	r24, 0xD3	; 211
     908:	88 7e       	andi	r24, 0xE8	; 232
     90a:	78 89       	ldd	r23, Y+16	; 0x10
     90c:	7e 8d       	ldd	r23, Y+30	; 0x1e
     90e:	7b 85       	ldd	r23, Y+11	; 0x0b
     910:	76 79       	andi	r23, 0x96	; 150
     912:	87 77       	andi	r24, 0x77	; 119
     914:	83 87       	std	Z+11, r24	; 0x0b
     916:	7c 89       	ldd	r23, Y+20	; 0x14
     918:	7b 8b       	std	Y+19, r23	; 0x13
     91a:	70 7a       	andi	r23, 0xA0	; 160
     91c:	88 85       	ldd	r24, Y+8	; 0x08
     91e:	91 83       	std	Z+1, r25	; 0x01
     920:	7d 89       	ldd	r23, Y+21	; 0x15
     922:	8e 6d       	ori	r24, 0xDE	; 222
     924:	73 87       	std	Z+11, r23	; 0x0b
     926:	88 97       	sbiw	r24, 0x28	; 40
     928:	8e 71       	andi	r24, 0x1E	; 30
     92a:	7d 7d       	andi	r23, 0xDD	; 221
     92c:	74 8c       	ldd	r7, Z+28	; 0x1c
     92e:	80 8a       	std	Z+16, r8	; 0x10
     930:	89 81       	ldd	r24, Y+1	; 0x01
     932:	80 87       	std	Z+8, r24	; 0x08
     934:	8e 78       	andi	r24, 0x8E	; 142
     936:	79 7c       	andi	r23, 0xC9	; 201
     938:	7c 79       	andi	r23, 0x9C	; 156
     93a:	86 8d       	ldd	r24, Z+30	; 0x1e
     93c:	76 8a       	std	Z+22, r7	; 0x16
     93e:	81 82       	std	Z+1, r8	; 0x01
     940:	77 94       	ror	r7
     942:	7d 8e       	std	Y+29, r7	; 0x1d
     944:	7a 74       	andi	r23, 0x4A	; 74
     946:	84 82       	std	Z+4, r8	; 0x04
     948:	89 90       	ld	r8, Y+
     94a:	63 73       	andi	r22, 0x33	; 51
     94c:	7b 86       	std	Y+11, r7	; 0x0b
     94e:	74 82       	std	Z+4, r7	; 0x04
     950:	81 6c       	ori	r24, 0xC1	; 193
     952:	88 8b       	std	Y+16, r24	; 0x10
     954:	89 7d       	andi	r24, 0xD9	; 217
     956:	81 88       	ldd	r8, Z+17	; 0x11
     958:	86 7a       	andi	r24, 0xA6	; 166
     95a:	84 91       	lpm	r24, Z
     95c:	90 8d       	ldd	r25, Z+24	; 0x18
     95e:	7b 75       	andi	r23, 0x5B	; 91
     960:	7a 86       	std	Y+10, r7	; 0x0a
     962:	7e 90       	ld	r7, -X
     964:	86 8a       	std	Z+22, r8	; 0x16
     966:	7e 7f       	andi	r23, 0xFE	; 254
     968:	81 7c       	andi	r24, 0xC1	; 193
     96a:	7b 70       	andi	r23, 0x0B	; 11
     96c:	84 88       	ldd	r8, Z+20	; 0x14
     96e:	76 86       	std	Z+14, r7	; 0x0e
     970:	88 8d       	ldd	r24, Y+24	; 0x18
     972:	79 7a       	andi	r23, 0xA9	; 169
     974:	aa 91       	ld	r26, -Y
     976:	7e 87       	std	Y+14, r23	; 0x0e
     978:	87 70       	andi	r24, 0x07	; 7
     97a:	80 78       	andi	r24, 0x80	; 128
     97c:	85 7e       	andi	r24, 0xE5	; 229
     97e:	8a 79       	andi	r24, 0x9A	; 154
     980:	7f 81       	ldd	r23, Y+7	; 0x07
     982:	8a 66       	ori	r24, 0x6A	; 106
     984:	79 83       	std	Y+1, r23	; 0x01
     986:	93 68       	ori	r25, 0x83	; 131
     988:	81 79       	andi	r24, 0x91	; 145
     98a:	85 79       	andi	r24, 0x95	; 149
     98c:	89 80       	ldd	r8, Y+1	; 0x01
     98e:	92 70       	andi	r25, 0x02	; 2
     990:	7a 74       	andi	r23, 0x4A	; 74
     992:	7d 70       	andi	r23, 0x0D	; 13
     994:	88 7e       	andi	r24, 0xE8	; 232
     996:	82 8b       	std	Z+18, r24	; 0x12
     998:	7a 82       	std	Y+2, r7	; 0x02
     99a:	76 79       	andi	r23, 0x96	; 150
     99c:	89 9c       	mul	r8, r9
     99e:	7f 74       	andi	r23, 0x4F	; 79
     9a0:	88 77       	andi	r24, 0x78	; 120
     9a2:	80 7e       	andi	r24, 0xE0	; 224
     9a4:	80 8a       	std	Z+16, r8	; 0x10
     9a6:	89 8c       	ldd	r8, Y+25	; 0x19
     9a8:	7c 83       	std	Y+4, r23	; 0x04
     9aa:	8b 8f       	std	Y+27, r24	; 0x1b
     9ac:	71 81       	ldd	r23, Z+1	; 0x01
     9ae:	6e 7a       	andi	r22, 0xAE	; 174
     9b0:	7a 82       	std	Y+2, r7	; 0x02
     9b2:	86 76       	andi	r24, 0x66	; 102
     9b4:	82 85       	ldd	r24, Z+10	; 0x0a
     9b6:	91 81       	ldd	r25, Z+1	; 0x01
     9b8:	81 6d       	ori	r24, 0xD1	; 209
     9ba:	71 85       	ldd	r23, Z+9	; 0x09
     9bc:	72 8a       	std	Z+18, r7	; 0x12
     9be:	73 8f       	std	Z+27, r23	; 0x1b
     9c0:	89 80       	ldd	r8, Y+1	; 0x01
     9c2:	76 7a       	andi	r23, 0xA6	; 166
     9c4:	7e 84       	ldd	r7, Y+14	; 0x0e
     9c6:	71 8e       	std	Z+25, r7	; 0x19
     9c8:	87 81       	ldd	r24, Z+7	; 0x07
     9ca:	77 98       	cbi	0x0e, 7	; 14
     9cc:	75 8a       	std	Z+21, r7	; 0x15
     9ce:	64 8e       	std	Z+28, r6	; 0x1c
     9d0:	8c 89       	ldd	r24, Y+20	; 0x14
     9d2:	8d 74       	andi	r24, 0x4D	; 77
     9d4:	8f 6b       	ori	r24, 0xBF	; 191
     9d6:	73 73       	andi	r23, 0x33	; 51
     9d8:	67 9b       	sbis	0x0c, 7	; 12
     9da:	7f 7b       	andi	r23, 0xBF	; 191
     9dc:	96 74       	andi	r25, 0x46	; 70
     9de:	7f 5d       	subi	r23, 0xDF	; 223
     9e0:	99 69       	ori	r25, 0x99	; 153
     9e2:	a2 64       	ori	r26, 0x42	; 66
     9e4:	81 83       	std	Z+1, r24	; 0x01
     9e6:	89 9b       	sbis	0x11, 1	; 17
     9e8:	6f 9a       	sbi	0x0d, 7	; 13
     9ea:	65 a8       	ldd	r6, Z+53	; 0x35
     9ec:	81 86       	std	Z+9, r8	; 0x09
     9ee:	76 77       	andi	r23, 0x76	; 118
     9f0:	85 6b       	ori	r24, 0xB5	; 181
     9f2:	93 7e       	andi	r25, 0xE3	; 227
     9f4:	6a 72       	andi	r22, 0x2A	; 42
     9f6:	96 70       	andi	r25, 0x06	; 6
     9f8:	87 80       	ldd	r8, Z+7	; 0x07
     9fa:	7b 6c       	ori	r23, 0xCB	; 203
     9fc:	89 6b       	ori	r24, 0xB9	; 185
     9fe:	87 8c       	ldd	r8, Z+31	; 0x1f
     a00:	6e 7e       	andi	r22, 0xEE	; 238
     a02:	7a 93       	st	-Y, r23
     a04:	65 76       	andi	r22, 0x65	; 101
     a06:	7e 97       	sbiw	r30, 0x1e	; 30
     a08:	8b 6d       	ori	r24, 0xDB	; 219
     a0a:	80 53       	subi	r24, 0x30	; 48
     a0c:	9c 67       	ori	r25, 0x7C	; 124
     a0e:	89 6a       	ori	r24, 0xA9	; 169
     a10:	74 8a       	std	Z+20, r7	; 0x14
     a12:	69 8f       	std	Y+25, r22	; 0x19
     a14:	7d 70       	andi	r23, 0x0D	; 13
     a16:	78 84       	ldd	r7, Y+8	; 0x08
     a18:	8f 93       	push	r24
     a1a:	9a 83       	std	Y+2, r25	; 0x02
     a1c:	7f 6b       	ori	r23, 0xBF	; 191
     a1e:	8c 7f       	andi	r24, 0xFC	; 252
     a20:	79 7f       	andi	r23, 0xF9	; 249
     a22:	75 88       	ldd	r7, Z+21	; 0x15
     a24:	76 96       	adiw	r30, 0x16	; 22
     a26:	7c 83       	std	Y+4, r23	; 0x04
     a28:	6f 7b       	andi	r22, 0xBF	; 191
     a2a:	7e 98       	cbi	0x0f, 6	; 15
     a2c:	96 83       	std	Z+6, r25	; 0x06
     a2e:	85 7d       	andi	r24, 0xD5	; 213
     a30:	89 7a       	andi	r24, 0xA9	; 169
     a32:	6c 90       	ld	r6, X
     a34:	63 84       	ldd	r6, Z+11	; 0x0b
     a36:	98 89       	ldd	r25, Y+16	; 0x10
     a38:	69 67       	ori	r22, 0x79	; 121
     a3a:	84 94       	.word	0x9484	; ????
     a3c:	75 6e       	ori	r23, 0xE5	; 229
     a3e:	8c 75       	andi	r24, 0x5C	; 92
     a40:	7a 7e       	andi	r23, 0xEA	; 234
     a42:	89 8f       	std	Y+25, r24	; 0x19
     a44:	76 8f       	std	Z+30, r23	; 0x1e
     a46:	80 ac       	ldd	r8, Z+56	; 0x38
     a48:	51 a1       	ldd	r21, Z+33	; 0x21
     a4a:	73 9a       	sbi	0x0e, 3	; 14
     a4c:	58 82       	st	Y, r5
     a4e:	90 7b       	andi	r25, 0xB0	; 176
     a50:	7e 72       	andi	r23, 0x2E	; 46
     a52:	86 7e       	andi	r24, 0xE6	; 230
     a54:	7b 83       	std	Y+3, r23	; 0x03
     a56:	83 71       	andi	r24, 0x13	; 19
     a58:	8e 86       	std	Y+14, r8	; 0x0e
     a5a:	78 76       	andi	r23, 0x68	; 104
     a5c:	7a 89       	ldd	r23, Y+18	; 0x12
     a5e:	69 6c       	ori	r22, 0xC9	; 201
     a60:	7a 8c       	ldd	r7, Y+26	; 0x1a
     a62:	95 87       	std	Z+13, r25	; 0x0d
     a64:	85 74       	andi	r24, 0x45	; 69
     a66:	81 79       	andi	r24, 0x91	; 145
     a68:	96 6d       	ori	r25, 0xD6	; 214
     a6a:	9c 7a       	andi	r25, 0xAC	; 172
     a6c:	72 88       	ldd	r7, Z+18	; 0x12
     a6e:	8a 9c       	mul	r8, r10
     a70:	7e 78       	andi	r23, 0x8E	; 142
     a72:	7e 95 6c 92 	call	0x5d24d8	; 0x5d24d8 <_etext+0x5cf40e>
     a76:	78 8f       	std	Y+24, r23	; 0x18
     a78:	79 94       	.word	0x9479	; ????
     a7a:	68 71       	andi	r22, 0x18	; 24
     a7c:	94 72       	andi	r25, 0x24	; 36
     a7e:	73 79       	andi	r23, 0x93	; 147
     a80:	71 96       	adiw	r30, 0x11	; 17
     a82:	7c 75       	andi	r23, 0x5C	; 92
     a84:	73 88       	ldd	r7, Z+19	; 0x13
     a86:	77 7c       	andi	r23, 0xC7	; 199
     a88:	77 70       	andi	r23, 0x07	; 7
     a8a:	87 66       	ori	r24, 0x67	; 103
     a8c:	9d 7d       	andi	r25, 0xDD	; 221
     a8e:	73 6c       	ori	r23, 0xC3	; 195
     a90:	85 71       	andi	r24, 0x15	; 21
     a92:	84 86       	std	Z+12, r8	; 0x0c
     a94:	83 82       	std	Z+3, r8	; 0x03
     a96:	82 85       	ldd	r24, Z+10	; 0x0a
     a98:	8c 9c       	mul	r8, r12
     a9a:	58 6d       	ori	r21, 0xD8	; 216
     a9c:	8c 78       	andi	r24, 0x8C	; 140
     a9e:	90 59       	subi	r25, 0x90	; 144
     aa0:	9a 83       	std	Y+2, r25	; 0x02
     aa2:	87 5f       	subi	r24, 0xF7	; 247
     aa4:	8d 94 7a 6c 	jmp	0x22d8f4	; 0x22d8f4 <_etext+0x22a82a>
     aa8:	5c 98       	cbi	0x0b, 4	; 11
     aaa:	67 93       	lat	Z, r22
     aac:	74 84       	ldd	r7, Z+12	; 0x0c
     aae:	75 8a       	std	Z+21, r7	; 0x15
     ab0:	86 9b       	sbis	0x10, 6	; 16
     ab2:	9b 66       	ori	r25, 0x6B	; 107
     ab4:	85 8e       	std	Z+29, r8	; 0x1d
     ab6:	82 8c       	ldd	r8, Z+26	; 0x1a
     ab8:	90 64       	ori	r25, 0x40	; 64
     aba:	70 8c       	ldd	r7, Z+24	; 0x18
     abc:	92 7a       	andi	r25, 0xA2	; 162
     abe:	88 72       	andi	r24, 0x28	; 40
     ac0:	90 6d       	ori	r25, 0xD0	; 208
     ac2:	a0 68       	ori	r26, 0x80	; 128
     ac4:	8d 6c       	ori	r24, 0xCD	; 205
     ac6:	71 8d       	ldd	r23, Z+25	; 0x19
     ac8:	80 7c       	andi	r24, 0xC0	; 192
     aca:	79 81       	ldd	r23, Y+1	; 0x01
     acc:	79 95       	.word	0x9579	; ????
     ace:	90 70       	andi	r25, 0x00	; 0
     ad0:	72 6a       	ori	r23, 0xA2	; 162
     ad2:	82 95       	swap	r24
     ad4:	6c 72       	andi	r22, 0x2C	; 44
     ad6:	73 78       	andi	r23, 0x83	; 131
     ad8:	9b 92       	.word	0x929b	; ????
     ada:	79 71       	andi	r23, 0x19	; 25
     adc:	85 8c       	ldd	r8, Z+29	; 0x1d
     ade:	7a 7d       	andi	r23, 0xDA	; 218
     ae0:	79 7d       	andi	r23, 0xD9	; 217
     ae2:	a0 7c       	andi	r26, 0xC0	; 192
     ae4:	8b 84       	ldd	r8, Y+11	; 0x0b
     ae6:	9c 82       	std	Y+4, r9	; 0x04
     ae8:	7e 81       	ldd	r23, Y+6	; 0x06
     aea:	84 7e       	andi	r24, 0xE4	; 228
     aec:	77 94       	ror	r7
     aee:	82 84       	ldd	r8, Z+10	; 0x0a
     af0:	65 78       	andi	r22, 0x85	; 133
     af2:	72 7d       	andi	r23, 0xD2	; 210
     af4:	8f 85       	ldd	r24, Y+15	; 0x0f
     af6:	6d 88       	ldd	r6, Y+21	; 0x15
     af8:	7a 87       	std	Y+10, r23	; 0x0a
     afa:	7f 85       	ldd	r23, Y+15	; 0x0f
     afc:	7a 77       	andi	r23, 0x7A	; 122
     afe:	8b 8e       	std	Y+27, r8	; 0x1b
     b00:	95 6b       	ori	r25, 0xB5	; 181
     b02:	75 59       	subi	r23, 0x95	; 149
     b04:	7e 87       	std	Y+14, r23	; 0x0e
     b06:	88 70       	andi	r24, 0x08	; 8
     b08:	8f 6e       	ori	r24, 0xEF	; 239
     b0a:	80 60       	ori	r24, 0x00	; 0
     b0c:	6d 95 81 7b 	jmp	0x5af702	; 0x5af702 <_etext+0x5ac638>
     b10:	8a 84       	ldd	r8, Y+10	; 0x0a
     b12:	75 7e       	andi	r23, 0xE5	; 229
     b14:	77 96       	adiw	r30, 0x17	; 23
     b16:	85 82       	std	Z+5, r8	; 0x05
     b18:	58 99       	sbic	0x0b, 0	; 11
     b1a:	76 a0       	ldd	r7, Z+38	; 0x26
     b1c:	5c 8e       	std	Y+28, r5	; 0x1c
     b1e:	71 95       	neg	r23
     b20:	79 7e       	andi	r23, 0xE9	; 233
     b22:	81 63       	ori	r24, 0x31	; 49
     b24:	86 7b       	andi	r24, 0xB6	; 182
     b26:	8b 84       	ldd	r8, Y+11	; 0x0b
     b28:	9b 79       	andi	r25, 0x9B	; 155
     b2a:	86 61       	ori	r24, 0x16	; 22
     b2c:	7a 55       	subi	r23, 0x5A	; 90
     b2e:	9b 91       	.word	0x919b	; ????
     b30:	7e 71       	andi	r23, 0x1E	; 30
     b32:	83 94       	inc	r8
     b34:	88 9a       	sbi	0x11, 0	; 17
     b36:	56 9b       	sbis	0x0a, 6	; 10
     b38:	7c 96       	adiw	r30, 0x1c	; 28
     b3a:	61 7b       	andi	r22, 0xB1	; 177
     b3c:	96 8e       	std	Z+30, r9	; 0x1e
     b3e:	8f 8c       	ldd	r8, Y+31	; 0x1f
     b40:	68 79       	andi	r22, 0x98	; 152
     b42:	90 86       	std	Z+8, r9	; 0x08
     b44:	76 8b       	std	Z+22, r23	; 0x16
     b46:	82 99       	sbic	0x10, 2	; 16
     b48:	74 7f       	andi	r23, 0xF4	; 244
     b4a:	79 6c       	ori	r23, 0xC9	; 201
     b4c:	81 8b       	std	Z+17, r24	; 0x11
     b4e:	75 8f       	std	Z+29, r23	; 0x1d
     b50:	62 9c       	mul	r6, r2
     b52:	91 7f       	andi	r25, 0xF1	; 241
     b54:	66 80       	ldd	r6, Z+6	; 0x06
     b56:	62 94       	swap	r6
     b58:	60 8c       	ldd	r6, Z+24	; 0x18
     b5a:	69 9a       	sbi	0x0d, 1	; 13
     b5c:	84 74       	andi	r24, 0x44	; 68
     b5e:	62 7e       	andi	r22, 0xE2	; 226
     b60:	9d 92       	st	X+, r9
     b62:	6a 8b       	std	Y+18, r22	; 0x12
     b64:	93 71       	andi	r25, 0x13	; 19
     b66:	6e 82       	std	Y+6, r6	; 0x06
     b68:	98 82       	st	Y, r9
     b6a:	66 92       	lac	Z, r6
     b6c:	81 65       	ori	r24, 0x51	; 81
     b6e:	6e 94 88 9d 	call	0x193b10	; 0x193b10 <_etext+0x190a46>
     b72:	8e 9b       	sbis	0x11, 6	; 17
     b74:	57 90       	elpm	r5, Z+
     b76:	90 76       	andi	r25, 0x60	; 96
     b78:	88 9a       	sbi	0x11, 0	; 17
     b7a:	75 8d       	ldd	r23, Z+29	; 0x1d
     b7c:	7e 86       	std	Y+14, r7	; 0x0e
     b7e:	73 72       	andi	r23, 0x23	; 35
     b80:	82 73       	andi	r24, 0x32	; 50
     b82:	85 91       	lpm	r24, Z+
     b84:	6d 70       	andi	r22, 0x0D	; 13
     b86:	6b 8d       	ldd	r22, Y+27	; 0x1b
     b88:	79 79       	andi	r23, 0x99	; 153
     b8a:	7b 7c       	andi	r23, 0xCB	; 203
     b8c:	87 99       	sbic	0x10, 7	; 16
     b8e:	70 7d       	andi	r23, 0xD0	; 208
     b90:	85 7f       	andi	r24, 0xF5	; 245
     b92:	8a 97       	sbiw	r24, 0x2a	; 42
     b94:	75 7c       	andi	r23, 0xC5	; 197
     b96:	64 8a       	std	Z+20, r6	; 0x14
     b98:	74 83       	std	Z+4, r23	; 0x04
     b9a:	80 7f       	andi	r24, 0xF0	; 240
     b9c:	8f 77       	andi	r24, 0x7F	; 127
     b9e:	67 76       	andi	r22, 0x67	; 103
     ba0:	85 72       	andi	r24, 0x25	; 37
     ba2:	7c 77       	andi	r23, 0x7C	; 124
     ba4:	76 8d       	ldd	r23, Z+30	; 0x1e
     ba6:	8b 70       	andi	r24, 0x0B	; 11
     ba8:	99 7d       	andi	r25, 0xD9	; 217
     baa:	82 6c       	ori	r24, 0xC2	; 194
     bac:	79 89       	ldd	r23, Y+17	; 0x11
     bae:	92 bc       	out	0x22, r9	; 34
     bb0:	89 71       	andi	r24, 0x19	; 25
     bb2:	85 7c       	andi	r24, 0xC5	; 197
     bb4:	7c 6a       	ori	r23, 0xAC	; 172
     bb6:	84 92       	xch	Z, r8
     bb8:	85 75       	andi	r24, 0x55	; 85
     bba:	7d 8a       	std	Y+21, r7	; 0x15
     bbc:	52 9a       	sbi	0x0a, 2	; 10
     bbe:	5d 85       	ldd	r21, Y+13	; 0x0d
     bc0:	55 9d       	mul	r21, r5
     bc2:	97 83       	std	Z+7, r25	; 0x07
     bc4:	7d 7f       	andi	r23, 0xFD	; 253
     bc6:	92 65       	ori	r25, 0x52	; 82
     bc8:	6e 68       	ori	r22, 0x8E	; 142
     bca:	9e 88       	ldd	r9, Y+22	; 0x16
     bcc:	93 64       	ori	r25, 0x43	; 67
     bce:	9c 82       	std	Y+4, r9	; 0x04
     bd0:	87 66       	ori	r24, 0x67	; 103
     bd2:	8f 76       	andi	r24, 0x6F	; 111
     bd4:	76 7a       	andi	r23, 0xA6	; 166
     bd6:	86 78       	andi	r24, 0x86	; 134
     bd8:	7e 9c       	mul	r7, r14
     bda:	71 6d       	ori	r23, 0xD1	; 209
     bdc:	7a 65       	ori	r23, 0x5A	; 90
     bde:	a5 6b       	ori	r26, 0xB5	; 181
     be0:	a2 89       	ldd	r26, Z+18	; 0x12
     be2:	91 48       	sbci	r25, 0x81	; 129
     be4:	6f 70       	andi	r22, 0x0F	; 15
     be6:	af 80       	ldd	r10, Y+7	; 0x07
     be8:	75 73       	andi	r23, 0x35	; 53
     bea:	86 91       	elpm	r24, Z
     bec:	8d 6c       	ori	r24, 0xCD	; 205
     bee:	80 82       	st	Z, r8
     bf0:	a0 84       	ldd	r10, Z+8	; 0x08
     bf2:	8b 7b       	andi	r24, 0xBB	; 187
     bf4:	54 6d       	ori	r21, 0xD4	; 212
     bf6:	72 a2       	std	Z+34, r7	; 0x22
     bf8:	74 8a       	std	Z+20, r7	; 0x14
     bfa:	7a 83       	std	Y+2, r23	; 0x02
     bfc:	64 81       	ldd	r22, Z+4	; 0x04
     bfe:	79 7c       	andi	r23, 0xC9	; 201
     c00:	79 73       	andi	r23, 0x39	; 57
     c02:	72 80       	ldd	r7, Z+2	; 0x02
     c04:	98 80       	ld	r9, Y
     c06:	8b 65       	ori	r24, 0x5B	; 91
     c08:	a0 9d       	mul	r26, r0
     c0a:	79 68       	ori	r23, 0x89	; 137
     c0c:	6a 9b       	sbis	0x0d, 2	; 13
     c0e:	9e 68       	ori	r25, 0x8E	; 142
     c10:	79 7b       	andi	r23, 0xB9	; 185
     c12:	8a 8c       	ldd	r8, Y+26	; 0x1a
     c14:	80 8d       	ldd	r24, Z+24	; 0x18
     c16:	77 99       	sbic	0x0e, 7	; 14
     c18:	75 7f       	andi	r23, 0xF5	; 245
     c1a:	73 86       	std	Z+11, r7	; 0x0b
     c1c:	7a 57       	subi	r23, 0x7A	; 122
     c1e:	6e 75       	andi	r22, 0x5E	; 94
     c20:	7e 8f       	std	Y+30, r23	; 0x1e
     c22:	6f a3       	std	Y+39, r22	; 0x27
     c24:	67 9f       	mul	r22, r23
     c26:	69 a1       	ldd	r22, Y+33	; 0x21
     c28:	65 9b       	sbis	0x0c, 5	; 12
     c2a:	6e 93       	st	-X, r22
     c2c:	6f 9f       	mul	r22, r31
     c2e:	6c 9e       	mul	r6, r28
     c30:	72 8f       	std	Z+26, r23	; 0x1a
     c32:	74 7f       	andi	r23, 0xF4	; 244
     c34:	7c 6c       	ori	r23, 0xCC	; 204
     c36:	6b 5d       	subi	r22, 0xDB	; 219
     c38:	84 8c       	ldd	r8, Z+28	; 0x1c
     c3a:	89 6d       	ori	r24, 0xD9	; 217
     c3c:	83 8c       	ldd	r8, Z+27	; 0x1b
     c3e:	76 9d       	mul	r23, r6
     c40:	8a 89       	ldd	r24, Y+18	; 0x12
     c42:	6f 8f       	std	Y+31, r22	; 0x1f
     c44:	8d 87       	std	Y+13, r24	; 0x0d
     c46:	74 7f       	andi	r23, 0xF4	; 244
     c48:	77 85       	ldd	r23, Z+15	; 0x0f
     c4a:	8c 8e       	std	Y+28, r8	; 0x1c
     c4c:	8c 63       	ori	r24, 0x3C	; 60
     c4e:	75 a2       	std	Z+37, r7	; 0x25
     c50:	7c 86       	std	Y+12, r7	; 0x0c
     c52:	6c 8d       	ldd	r22, Y+28	; 0x1c
     c54:	68 a8       	ldd	r6, Y+48	; 0x30
     c56:	8a 91       	ld	r24, -Y
     c58:	65 7e       	andi	r22, 0xE5	; 229
     c5a:	70 99       	sbic	0x0e, 0	; 14
     c5c:	93 78       	andi	r25, 0x83	; 131
     c5e:	8f 9a       	sbi	0x11, 7	; 17
     c60:	95 75       	andi	r25, 0x55	; 85
     c62:	73 83       	std	Z+3, r23	; 0x03
     c64:	51 83       	std	Z+1, r21	; 0x01
     c66:	7b 90       	.word	0x907b	; ????
     c68:	72 89       	ldd	r23, Z+18	; 0x12
     c6a:	6d 9c       	mul	r6, r13
     c6c:	69 91       	ld	r22, Y+
     c6e:	69 8e       	std	Y+25, r6	; 0x19
     c70:	7a 9f       	mul	r23, r26
     c72:	65 8b       	std	Z+21, r22	; 0x15
     c74:	6e 74       	andi	r22, 0x4E	; 78
     c76:	82 53       	subi	r24, 0x32	; 50
     c78:	69 6e       	ori	r22, 0xE9	; 233
     c7a:	aa 7b       	andi	r26, 0xBA	; 186
     c7c:	70 91 87 83 	lds	r23, 0x8387
     c80:	8d 7e       	andi	r24, 0xED	; 237
     c82:	8b 84       	ldd	r8, Y+11	; 0x0b
     c84:	7e 8c       	ldd	r7, Y+30	; 0x1e
     c86:	77 60       	ori	r23, 0x07	; 7
     c88:	82 5e       	subi	r24, 0xE2	; 226
     c8a:	9e 6f       	ori	r25, 0xFE	; 254
     c8c:	93 87       	std	Z+11, r25	; 0x0b
     c8e:	85 88       	ldd	r8, Z+21	; 0x15
     c90:	88 70       	andi	r24, 0x08	; 8
     c92:	6f 7b       	andi	r22, 0xBF	; 191
     c94:	7d ac       	ldd	r7, Y+61	; 0x3d
     c96:	70 94       	com	r7
     c98:	50 a2       	std	Z+32, r5	; 0x20
     c9a:	63 aa       	std	Z+51, r6	; 0x33
     c9c:	74 91       	lpm	r23, Z
     c9e:	6e 73       	andi	r22, 0x3E	; 62
     ca0:	85 66       	ori	r24, 0x65	; 101
     ca2:	74 7b       	andi	r23, 0xB4	; 180
     ca4:	6d 89       	ldd	r22, Y+21	; 0x15
     ca6:	6d 9e       	mul	r6, r29
     ca8:	78 73       	andi	r23, 0x38	; 56
     caa:	8f 80       	ldd	r8, Y+7	; 0x07
     cac:	8b 8d       	ldd	r24, Y+27	; 0x1b
     cae:	5e af       	std	Y+62, r21	; 0x3e
     cb0:	68 80       	ld	r6, Y
     cb2:	62 85       	ldd	r22, Z+10	; 0x0a
     cb4:	85 b5       	in	r24, 0x25	; 37
     cb6:	79 95       	.word	0x9579	; ????
     cb8:	68 8d       	ldd	r22, Y+24	; 0x18
     cba:	67 a2       	std	Z+39, r6	; 0x27
     cbc:	6c 7f       	andi	r22, 0xFC	; 252
     cbe:	65 61       	ori	r22, 0x15	; 21
     cc0:	a1 70       	andi	r26, 0x01	; 1
     cc2:	6f 5b       	subi	r22, 0xBF	; 191
     cc4:	a3 a3       	std	Z+35, r26	; 0x23
     cc6:	61 9c       	mul	r6, r1
     cc8:	5d 9f       	mul	r21, r29
     cca:	8c 96       	adiw	r24, 0x2c	; 44
     ccc:	5a 73       	andi	r21, 0x3A	; 58
     cce:	58 9b       	sbis	0x0b, 0	; 11
     cd0:	83 63       	ori	r24, 0x33	; 51
     cd2:	63 66       	ori	r22, 0x63	; 99
     cd4:	a6 85       	ldd	r26, Z+14	; 0x0e
     cd6:	5a 8a       	std	Y+18, r5	; 0x12
     cd8:	7a 94       	dec	r7
     cda:	98 81       	ld	r25, Y
     cdc:	6f 87       	std	Y+15, r22	; 0x0f
     cde:	84 8f       	std	Z+28, r24	; 0x1c
     ce0:	8e 6e       	ori	r24, 0xEE	; 238
     ce2:	8c 8b       	std	Y+20, r24	; 0x14
     ce4:	88 7a       	andi	r24, 0xA8	; 168
     ce6:	79 84       	ldd	r7, Y+9	; 0x09
     ce8:	6d 81       	ldd	r22, Y+5	; 0x05
     cea:	80 95       	com	r24
     cec:	8c 66       	ori	r24, 0x6C	; 108
     cee:	5e 96       	adiw	r26, 0x1e	; 30
     cf0:	6e 9b       	sbis	0x0d, 6	; 13
     cf2:	81 7f       	andi	r24, 0xF1	; 241
     cf4:	7f 82       	std	Y+7, r7	; 0x07
     cf6:	9e 80       	ldd	r9, Y+6	; 0x06
     cf8:	a3 56       	subi	r26, 0x63	; 99
     cfa:	8c 8f       	std	Y+28, r24	; 0x1c
     cfc:	9b 77       	andi	r25, 0x7B	; 123
     cfe:	84 86       	std	Z+12, r8	; 0x0c
     d00:	73 93       	.word	0x9373	; ????
     d02:	59 a1       	ldd	r21, Y+33	; 0x21
     d04:	72 77       	andi	r23, 0x72	; 114
     d06:	79 8c       	ldd	r7, Y+25	; 0x19
     d08:	8e b3       	in	r24, 0x1e	; 30
     d0a:	68 83       	st	Y, r22
     d0c:	98 85       	ldd	r25, Y+8	; 0x08
     d0e:	8b 75       	andi	r24, 0x5B	; 91
     d10:	82 7d       	andi	r24, 0xD2	; 210
     d12:	8b 8d       	ldd	r24, Y+27	; 0x1b
     d14:	61 83       	std	Z+1, r22	; 0x01
     d16:	84 90       	lpm	r8, Z
     d18:	7b 8e       	std	Y+27, r7	; 0x1b
     d1a:	6a 7f       	andi	r22, 0xFA	; 250
     d1c:	7d 71       	andi	r23, 0x1D	; 29
     d1e:	8a 66       	ori	r24, 0x6A	; 106
     d20:	8c 8b       	std	Y+20, r24	; 0x14
     d22:	93 54       	subi	r25, 0x43	; 67
     d24:	7b 68       	ori	r23, 0x8B	; 139
     d26:	98 87       	std	Y+8, r25	; 0x08
     d28:	88 6d       	ori	r24, 0xD8	; 216
     d2a:	84 8a       	std	Z+20, r8	; 0x14
     d2c:	89 a3       	std	Y+33, r24	; 0x21
     d2e:	8e 67       	ori	r24, 0x7E	; 126
     d30:	72 74       	andi	r23, 0x42	; 66
     d32:	7f 74       	andi	r23, 0x4F	; 79
     d34:	83 8b       	std	Z+19, r24	; 0x13
     d36:	66 7c       	andi	r22, 0xC6	; 198
     d38:	8c 8b       	std	Y+20, r24	; 0x14
     d3a:	8c 74       	andi	r24, 0x4C	; 76
     d3c:	95 89       	ldd	r25, Z+21	; 0x15
     d3e:	84 76       	andi	r24, 0x64	; 100
     d40:	87 72       	andi	r24, 0x27	; 39
     d42:	7d 7d       	andi	r23, 0xDD	; 221
     d44:	90 76       	andi	r25, 0x60	; 96
     d46:	75 88       	ldd	r7, Z+21	; 0x15
     d48:	7c 8d       	ldd	r23, Y+28	; 0x1c
     d4a:	6a 84       	ldd	r6, Y+10	; 0x0a
     d4c:	88 79       	andi	r24, 0x98	; 152
     d4e:	63 a7       	std	Z+43, r22	; 0x2b
     d50:	90 70       	andi	r25, 0x00	; 0
     d52:	87 7d       	andi	r24, 0xD7	; 215
     d54:	86 8a       	std	Z+22, r8	; 0x16
     d56:	73 63       	ori	r23, 0x33	; 51
     d58:	8b 7a       	andi	r24, 0xAB	; 171
     d5a:	99 6f       	ori	r25, 0xF9	; 249
     d5c:	87 60       	ori	r24, 0x07	; 7
     d5e:	8c 68       	ori	r24, 0x8C	; 140
     d60:	78 7f       	andi	r23, 0xF8	; 248
     d62:	93 73       	andi	r25, 0x33	; 51
     d64:	81 7d       	andi	r24, 0xD1	; 209
     d66:	6b 87       	std	Y+11, r22	; 0x0b
     d68:	7a 8b       	std	Y+18, r23	; 0x12
     d6a:	7d 6f       	ori	r23, 0xFD	; 253
     d6c:	9b 7c       	andi	r25, 0xCB	; 203
     d6e:	9f 7f       	andi	r25, 0xFF	; 255
     d70:	91 60       	ori	r25, 0x01	; 1
     d72:	9b 67       	ori	r25, 0x7B	; 123
     d74:	8f 72       	andi	r24, 0x2F	; 47
     d76:	99 7a       	andi	r25, 0xA9	; 169
     d78:	86 76       	andi	r24, 0x66	; 102
     d7a:	68 5e       	subi	r22, 0xE8	; 232
     d7c:	9c 7a       	andi	r25, 0xAC	; 172
     d7e:	88 6f       	ori	r24, 0xF8	; 248
     d80:	9f 69       	ori	r25, 0x9F	; 159
     d82:	6c 70       	andi	r22, 0x0C	; 12
     d84:	75 8d       	ldd	r23, Z+29	; 0x1d
     d86:	7b 8f       	std	Y+27, r23	; 0x1b
     d88:	74 9b       	sbis	0x0e, 4	; 14
     d8a:	7c 77       	andi	r23, 0x7C	; 124
     d8c:	74 79       	andi	r23, 0x94	; 148
     d8e:	73 86       	std	Z+11, r7	; 0x0b
     d90:	7d 89       	ldd	r23, Y+21	; 0x15
     d92:	79 82       	std	Y+1, r7	; 0x01
     d94:	8e 78       	andi	r24, 0x8E	; 142
     d96:	7c 7d       	andi	r23, 0xDC	; 220
     d98:	78 8a       	std	Y+16, r7	; 0x10
     d9a:	96 71       	andi	r25, 0x16	; 22
     d9c:	a8 57       	subi	r26, 0x78	; 120
     d9e:	9b 5b       	subi	r25, 0xBB	; 187
     da0:	80 6e       	ori	r24, 0xE0	; 224
     da2:	ad 78       	andi	r26, 0x8D	; 141
     da4:	79 6a       	ori	r23, 0xA9	; 169
     da6:	92 79       	andi	r25, 0x92	; 146
     da8:	7a 75       	andi	r23, 0x5A	; 90
     daa:	7d 6b       	ori	r23, 0xBD	; 189
     dac:	7f 85       	ldd	r23, Y+15	; 0x0f
     dae:	78 66       	ori	r23, 0x68	; 104
     db0:	78 86       	std	Y+8, r7	; 0x08
     db2:	7c 77       	andi	r23, 0x7C	; 124
     db4:	75 69       	ori	r23, 0x95	; 149
     db6:	80 90 6e 95 	lds	r8, 0x956E
     dba:	73 8c       	ldd	r7, Z+27	; 0x1b
     dbc:	60 85       	ldd	r22, Z+8	; 0x08
     dbe:	66 7f       	andi	r22, 0xF6	; 246
     dc0:	8a 80       	ldd	r8, Y+2	; 0x02
     dc2:	7e a6       	std	Y+46, r7	; 0x2e
     dc4:	95 6d       	ori	r25, 0xD5	; 213
     dc6:	89 69       	ori	r24, 0x99	; 153
     dc8:	80 72       	andi	r24, 0x20	; 32
     dca:	86 7b       	andi	r24, 0xB6	; 182
     dcc:	7e 81       	ldd	r23, Y+6	; 0x06
     dce:	8e 7a       	andi	r24, 0xAE	; 174
     dd0:	80 7c       	andi	r24, 0xC0	; 192
     dd2:	6b 88       	ldd	r6, Y+19	; 0x13
     dd4:	7e 82       	std	Y+6, r7	; 0x06
     dd6:	92 6a       	ori	r25, 0xA2	; 162
     dd8:	75 74       	andi	r23, 0x45	; 69
     dda:	76 82       	std	Z+6, r7	; 0x06
     ddc:	a1 89       	ldd	r26, Z+17	; 0x11
     dde:	97 6d       	ori	r25, 0xD7	; 215
     de0:	9e 7b       	andi	r25, 0xBE	; 190
     de2:	88 6f       	ori	r24, 0xF8	; 248
     de4:	8c 9b       	sbis	0x11, 4	; 17
     de6:	9e 58       	subi	r25, 0x8E	; 142
     de8:	8a 71       	andi	r24, 0x1A	; 26
     dea:	87 76       	andi	r24, 0x67	; 103
     dec:	92 88       	ldd	r9, Z+18	; 0x12
     dee:	93 6d       	ori	r25, 0xD3	; 211
     df0:	79 91       	ld	r23, Y+
     df2:	84 87       	std	Z+12, r24	; 0x0c
     df4:	7d 90       	ld	r7, X+
     df6:	80 7f       	andi	r24, 0xF0	; 240
     df8:	84 6e       	ori	r24, 0xE4	; 228
     dfa:	83 80       	ldd	r8, Z+3	; 0x03
     dfc:	7e 85       	ldd	r23, Y+14	; 0x0e
     dfe:	80 7d       	andi	r24, 0xD0	; 208
     e00:	7a 82       	std	Y+2, r7	; 0x02
     e02:	73 6c       	ori	r23, 0xC3	; 195
     e04:	87 75       	andi	r24, 0x57	; 87
     e06:	96 86       	std	Z+14, r9	; 0x0e
     e08:	72 8a       	std	Z+18, r7	; 0x12
     e0a:	7e 7e       	andi	r23, 0xEE	; 238
     e0c:	85 79       	andi	r24, 0x95	; 149
     e0e:	60 7b       	andi	r22, 0xB0	; 176
     e10:	87 96       	adiw	r24, 0x27	; 39
     e12:	87 98       	cbi	0x10, 7	; 16
     e14:	71 98       	cbi	0x0e, 1	; 14
     e16:	67 8a       	std	Z+23, r6	; 0x17
     e18:	5d 84       	ldd	r5, Y+13	; 0x0d
     e1a:	7d a2       	std	Y+37, r7	; 0x25
     e1c:	6c 8d       	ldd	r22, Y+28	; 0x1c
     e1e:	70 8f       	std	Z+24, r23	; 0x18
     e20:	7d 8a       	std	Y+21, r7	; 0x15
     e22:	73 5d       	subi	r23, 0xD3	; 211
     e24:	7b 88       	ldd	r7, Y+19	; 0x13
     e26:	7a 6b       	ori	r23, 0xBA	; 186
     e28:	93 87       	std	Z+11, r25	; 0x0b
     e2a:	7d 5d       	subi	r23, 0xDD	; 221
     e2c:	6f 92       	push	r6
     e2e:	7a 72       	andi	r23, 0x2A	; 42
     e30:	93 7a       	andi	r25, 0xA3	; 163
     e32:	89 6f       	ori	r24, 0xF9	; 249
     e34:	a7 6f       	ori	r26, 0xF7	; 247
     e36:	78 68       	ori	r23, 0x88	; 136
     e38:	91 7e       	andi	r25, 0xE1	; 225
     e3a:	8f 71       	andi	r24, 0x1F	; 31
     e3c:	a0 80       	ld	r10, Z
     e3e:	7d 5f       	subi	r23, 0xFD	; 253
     e40:	5c a5       	ldd	r21, Y+44	; 0x2c
     e42:	83 70       	andi	r24, 0x03	; 3
     e44:	86 61       	ori	r24, 0x16	; 22
     e46:	91 87       	std	Z+9, r25	; 0x09
     e48:	5f 60       	ori	r21, 0x0F	; 15
     e4a:	a7 73       	andi	r26, 0x37	; 55
     e4c:	97 6f       	ori	r25, 0xF7	; 247
     e4e:	8d 88       	ldd	r8, Y+21	; 0x15
     e50:	8c 80       	ldd	r8, Y+4	; 0x04
     e52:	8f 8e       	std	Y+31, r8	; 0x1f
     e54:	62 87       	std	Z+10, r22	; 0x0a
     e56:	7c 5c       	subi	r23, 0xCC	; 204
     e58:	4e 8c       	ldd	r4, Y+30	; 0x1e
     e5a:	80 9e       	mul	r8, r16
     e5c:	4f 8c       	ldd	r4, Y+31	; 0x1f
     e5e:	7b 9d       	mul	r23, r11
     e60:	62 96       	adiw	r28, 0x12	; 18
     e62:	72 84       	ldd	r7, Z+10	; 0x0a
     e64:	79 81       	ldd	r23, Y+1	; 0x01
     e66:	8d 65       	ori	r24, 0x5D	; 93
     e68:	6b 5c       	subi	r22, 0xCB	; 203
     e6a:	9b 81       	ldd	r25, Y+3	; 0x03
     e6c:	7f 62       	ori	r23, 0x2F	; 47
     e6e:	92 6f       	ori	r25, 0xF2	; 242
     e70:	7f 95 9d 74 	call	0x5ee93a	; 0x5ee93a <_etext+0x5eb870>
     e74:	73 91       	.word	0x9173	; ????
     e76:	a8 5b       	subi	r26, 0xB8	; 184
     e78:	61 87       	std	Z+9, r22	; 0x09
     e7a:	74 9a       	sbi	0x0e, 4	; 14
     e7c:	89 8a       	std	Y+17, r8	; 0x11
     e7e:	76 85       	ldd	r23, Z+14	; 0x0e
     e80:	73 86       	std	Z+11, r7	; 0x0b
     e82:	7a 93       	st	-Y, r23
     e84:	87 80       	ldd	r8, Z+7	; 0x07
     e86:	7a 84       	ldd	r7, Y+10	; 0x0a
     e88:	71 9a       	sbi	0x0e, 1	; 14
     e8a:	71 90       	ld	r7, Z+
     e8c:	8c 87       	std	Y+12, r24	; 0x0c
     e8e:	94 72       	andi	r25, 0x24	; 36
     e90:	97 77       	andi	r25, 0x77	; 119
     e92:	a1 5d       	subi	r26, 0xD1	; 209
     e94:	9c 75       	andi	r25, 0x5C	; 92
     e96:	67 7f       	andi	r22, 0xF7	; 247
     e98:	8a 86       	std	Y+10, r8	; 0x0a
     e9a:	8e 7f       	andi	r24, 0xFE	; 254
     e9c:	84 5e       	subi	r24, 0xE4	; 228
     e9e:	6b 75       	andi	r22, 0x5B	; 91
     ea0:	8e 85       	ldd	r24, Y+14	; 0x0e
     ea2:	7c 71       	andi	r23, 0x1C	; 28
     ea4:	8b 84       	ldd	r8, Y+11	; 0x0b
     ea6:	69 78       	andi	r22, 0x89	; 137
     ea8:	85 a7       	std	Z+45, r24	; 0x2d
     eaa:	63 7a       	andi	r22, 0xA3	; 163
     eac:	87 95       	ror	r24
     eae:	6a 6b       	ori	r22, 0xBA	; 186
     eb0:	7f 8a       	std	Y+23, r7	; 0x17
     eb2:	ac 9f       	mul	r26, r28
     eb4:	58 a7       	std	Y+40, r21	; 0x28
     eb6:	77 68       	ori	r23, 0x87	; 135
     eb8:	8c 8a       	std	Y+20, r8	; 0x14
     eba:	91 64       	ori	r25, 0x41	; 65
     ebc:	8b 68       	ori	r24, 0x8B	; 139
     ebe:	97 65       	ori	r25, 0x57	; 87
     ec0:	9f 6b       	ori	r25, 0xBF	; 191
     ec2:	8f 79       	andi	r24, 0x9F	; 159
     ec4:	86 84       	ldd	r8, Z+14	; 0x0e
     ec6:	5c 38       	cpi	r21, 0x8C	; 140
     ec8:	89 87       	std	Y+9, r24	; 0x09
     eca:	7d 68       	ori	r23, 0x8D	; 141
     ecc:	51 af       	std	Z+57, r21	; 0x39
     ece:	78 82       	st	Y, r7
     ed0:	74 8d       	ldd	r23, Z+28	; 0x1c
     ed2:	5f a1       	ldd	r21, Y+39	; 0x27
     ed4:	62 96       	adiw	r28, 0x12	; 18
     ed6:	69 99       	sbic	0x0d, 1	; 13
     ed8:	6d 93       	st	X+, r22
     eda:	90 71       	andi	r25, 0x10	; 16
     edc:	70 7e       	andi	r23, 0xE0	; 224
     ede:	60 7c       	andi	r22, 0xC0	; 192
     ee0:	78 82       	st	Y, r7
     ee2:	8c 9f       	mul	r24, r28
     ee4:	6a 68       	ori	r22, 0x8A	; 138
     ee6:	99 61       	ori	r25, 0x19	; 25
     ee8:	7a 86       	std	Y+10, r7	; 0x0a
     eea:	6f 5d       	subi	r22, 0xDF	; 223
     eec:	81 68       	ori	r24, 0x81	; 129
     eee:	90 97       	sbiw	r26, 0x20	; 32
     ef0:	82 71       	andi	r24, 0x12	; 18
     ef2:	9f 85       	ldd	r25, Y+15	; 0x0f
     ef4:	73 6e       	ori	r23, 0xE3	; 227
     ef6:	8a 75       	andi	r24, 0x5A	; 90
     ef8:	7c 91       	ld	r23, X
     efa:	70 77       	andi	r23, 0x70	; 112
     efc:	89 7a       	andi	r24, 0xA9	; 169
     efe:	86 70       	andi	r24, 0x06	; 6
     f00:	6b 6e       	ori	r22, 0xEB	; 235
     f02:	8c a5       	ldd	r24, Y+44	; 0x2c
     f04:	74 61       	ori	r23, 0x14	; 20
     f06:	93 87       	std	Z+11, r25	; 0x0b
     f08:	87 91       	elpm	r24, Z+
     f0a:	76 80       	ldd	r7, Z+6	; 0x06
     f0c:	98 ae       	std	Y+56, r9	; 0x38
     f0e:	78 86       	std	Y+8, r7	; 0x08
     f10:	82 77       	andi	r24, 0x72	; 114
     f12:	33 c1       	rjmp	.+614    	; 0x117a <__stack+0xc7b>
     f14:	93 80       	ldd	r9, Z+3	; 0x03
     f16:	87 7c       	andi	r24, 0xC7	; 199
     f18:	94 87       	std	Z+12, r25	; 0x0c
     f1a:	79 72       	andi	r23, 0x29	; 41
     f1c:	73 84       	ldd	r7, Z+11	; 0x0b
     f1e:	89 84       	ldd	r8, Y+9	; 0x09
     f20:	8d 66       	ori	r24, 0x6D	; 109
     f22:	88 82       	st	Y, r8
     f24:	67 72       	andi	r22, 0x27	; 39
     f26:	79 87       	std	Y+9, r23	; 0x09
     f28:	6d 80       	ldd	r6, Y+5	; 0x05
     f2a:	8e 70       	andi	r24, 0x0E	; 14
     f2c:	81 79       	andi	r24, 0x91	; 145
     f2e:	6d 89       	ldd	r22, Y+21	; 0x15
     f30:	a2 7b       	andi	r26, 0xB2	; 178
     f32:	91 7e       	andi	r25, 0xE1	; 225
     f34:	82 93       	st	-Z, r24
     f36:	6b 81       	ldd	r22, Y+3	; 0x03
     f38:	6f 8b       	std	Y+23, r22	; 0x17
     f3a:	6b 84       	ldd	r6, Y+11	; 0x0b
     f3c:	6d 88       	ldd	r6, Y+21	; 0x15
     f3e:	75 8b       	std	Z+21, r23	; 0x15
     f40:	77 7b       	andi	r23, 0xB7	; 183
     f42:	82 84       	ldd	r8, Z+10	; 0x0a
     f44:	7b 6b       	ori	r23, 0xBB	; 187
     f46:	7b 86       	std	Y+11, r7	; 0x0b
     f48:	89 66       	ori	r24, 0x69	; 105
     f4a:	88 6d       	ori	r24, 0xD8	; 216
     f4c:	98 7c       	andi	r25, 0xC8	; 200
     f4e:	88 5e       	subi	r24, 0xE8	; 232
     f50:	95 6e       	ori	r25, 0xE5	; 229
     f52:	7d 80       	ldd	r7, Y+5	; 0x05
     f54:	83 86       	std	Z+11, r8	; 0x0b
     f56:	80 84       	ldd	r8, Z+8	; 0x08
     f58:	89 81       	ldd	r24, Y+1	; 0x01
     f5a:	85 85       	ldd	r24, Z+13	; 0x0d
     f5c:	83 6b       	ori	r24, 0xB3	; 179
     f5e:	8f 81       	ldd	r24, Y+7	; 0x07
     f60:	87 73       	andi	r24, 0x37	; 55
     f62:	84 84       	ldd	r8, Z+12	; 0x0c
     f64:	90 78       	andi	r25, 0x80	; 128
     f66:	71 7f       	andi	r23, 0xF1	; 241
     f68:	81 81       	ldd	r24, Z+1	; 0x01
     f6a:	80 88       	ldd	r8, Z+16	; 0x10
     f6c:	7d 82       	std	Y+5, r7	; 0x05
     f6e:	7a 80       	ldd	r7, Y+2	; 0x02
     f70:	7c 81       	ldd	r23, Y+4	; 0x04
     f72:	72 82       	std	Z+2, r7	; 0x02
     f74:	7a 80       	ldd	r7, Y+2	; 0x02
     f76:	82 82       	std	Z+2, r8	; 0x02
     f78:	84 7a       	andi	r24, 0xA4	; 164
     f7a:	81 84       	ldd	r8, Z+9	; 0x09
     f7c:	83 7d       	andi	r24, 0xD3	; 211
     f7e:	78 81       	ld	r23, Y
     f80:	86 7d       	andi	r24, 0xD6	; 214
     f82:	77 80       	ldd	r7, Z+7	; 0x07
     f84:	8b 89       	ldd	r24, Y+19	; 0x13
     f86:	7e 82       	std	Y+6, r7	; 0x06
     f88:	8f 83       	std	Y+7, r24	; 0x07
     f8a:	81 86       	std	Z+9, r8	; 0x09
     f8c:	82 8a       	std	Z+18, r8	; 0x12
     f8e:	82 86       	std	Z+10, r8	; 0x0a
     f90:	82 83       	std	Z+2, r24	; 0x02
     f92:	7d 7a       	andi	r23, 0xAD	; 173
     f94:	7a 76       	andi	r23, 0x6A	; 106
     f96:	75 7b       	andi	r23, 0xB5	; 181
     f98:	77 70       	andi	r23, 0x07	; 7
     f9a:	7e 77       	andi	r23, 0x7E	; 126
     f9c:	7e 7c       	andi	r23, 0xCE	; 206
     f9e:	7b 7a       	andi	r23, 0xAB	; 171
     fa0:	81 7a       	andi	r24, 0xA1	; 161
     fa2:	7f 7a       	andi	r23, 0xAF	; 175
     fa4:	80 7a       	andi	r24, 0xA0	; 160
     fa6:	80 81       	ld	r24, Z
     fa8:	7e 80       	ldd	r7, Y+6	; 0x06
     faa:	85 82       	std	Z+5, r8	; 0x05
     fac:	87 88       	ldd	r8, Z+23	; 0x17
     fae:	80 8a       	std	Z+16, r8	; 0x10
     fb0:	85 86       	std	Z+13, r8	; 0x0d
     fb2:	83 88       	ldd	r8, Z+19	; 0x13
     fb4:	84 8d       	ldd	r24, Z+28	; 0x1c
     fb6:	8b 8c       	ldd	r8, Y+27	; 0x1b
     fb8:	8a 92       	st	-Y, r8
     fba:	97 98       	cbi	0x12, 7	; 18
     fbc:	a0 a0       	ldd	r10, Z+32	; 0x20
     fbe:	6a 8b       	std	Y+18, r22	; 0x12
     fc0:	7e 6a       	ori	r23, 0xAE	; 174
     fc2:	68 4b       	sbci	r22, 0xB8	; 184
     fc4:	54 68       	ori	r21, 0x84	; 132
     fc6:	56 62       	ori	r21, 0x26	; 38
     fc8:	69 81       	ldd	r22, Y+1	; 0x01
     fca:	9c 8d       	ldd	r25, Y+28	; 0x1c
     fcc:	8c 9e       	mul	r8, r28
     fce:	a0 a4       	ldd	r10, Z+40	; 0x28
     fd0:	96 84       	ldd	r9, Z+14	; 0x0e
     fd2:	93 7e       	andi	r25, 0xE3	; 227
     fd4:	7c 73       	andi	r23, 0x3C	; 60
     fd6:	6b 72       	andi	r22, 0x2B	; 43
     fd8:	6e 59       	subi	r22, 0x9E	; 158
     fda:	70 77       	andi	r23, 0x70	; 112
     fdc:	79 81       	ldd	r23, Y+1	; 0x01
     fde:	7d 92       	st	X+, r7
     fe0:	93 83       	std	Z+3, r25	; 0x03
     fe2:	85 77       	andi	r24, 0x75	; 117
     fe4:	81 7a       	andi	r24, 0xA1	; 161
     fe6:	67 71       	andi	r22, 0x17	; 23
     fe8:	72 74       	andi	r23, 0x42	; 66
     fea:	78 7a       	andi	r23, 0xA8	; 168
     fec:	80 91 90 96 	lds	r24, 0x9690
     ff0:	96 9d       	mul	r25, r6
     ff2:	a2 9c       	mul	r10, r2
     ff4:	9c 9f       	mul	r25, r28
     ff6:	9f b0       	in	r9, 0x0f	; 15
     ff8:	a6 88       	ldd	r10, Z+22	; 0x16
     ffa:	6f 6a       	ori	r22, 0xAF	; 175
     ffc:	59 58       	subi	r21, 0x89	; 137
     ffe:	46 2e       	mov	r4, r22
    1000:	5f 6c       	ori	r21, 0xCF	; 207
    1002:	68 85       	ldd	r22, Y+8	; 0x08
    1004:	8b ab       	std	Y+51, r24	; 0x33
    1006:	bf a0       	ldd	r11, Y+39	; 0x27
    1008:	a0 9d       	mul	r26, r0
    100a:	97 86       	std	Z+15, r9	; 0x0f
    100c:	61 5d       	subi	r22, 0xD1	; 209
    100e:	63 5f       	subi	r22, 0xF3	; 243
    1010:	62 62       	ori	r22, 0x22	; 34
    1012:	6b 83       	std	Y+3, r22	; 0x03
    1014:	94 8d       	ldd	r25, Z+28	; 0x1c
    1016:	99 96       	adiw	r26, 0x29	; 41
    1018:	a0 9f       	mul	r26, r16
    101a:	8c 85       	ldd	r24, Y+12	; 0x0c
    101c:	79 73       	andi	r23, 0x39	; 57
    101e:	6c 5b       	subi	r22, 0xBC	; 188
    1020:	60 5e       	subi	r22, 0xE0	; 224
    1022:	59 63       	ori	r21, 0x39	; 57
    1024:	6c 79       	andi	r22, 0x9C	; 156
    1026:	81 83       	std	Z+1, r24	; 0x01
    1028:	8c 96       	adiw	r24, 0x2c	; 44
    102a:	9a 94       	dec	r9
    102c:	8f 91       	pop	r24
    102e:	8e 85       	ldd	r24, Y+14	; 0x0e
    1030:	7f 7d       	andi	r23, 0xDF	; 223
    1032:	86 8f       	std	Z+30, r24	; 0x1e
    1034:	8a 99       	sbic	0x11, 2	; 17
    1036:	a0 ac       	ldd	r10, Z+56	; 0x38
    1038:	b8 c8       	rjmp	.-3728   	; 0x1aa <__trampolines_end+0x142>
    103a:	a9 72       	andi	r26, 0x29	; 41
    103c:	69 59       	subi	r22, 0x99	; 153
    103e:	58 44       	sbci	r21, 0x48	; 72
    1040:	10 4f       	sbci	r17, 0xF0	; 240
    1042:	74 67       	ori	r23, 0x74	; 116
    1044:	87 88       	ldd	r8, Z+23	; 0x17
    1046:	a4 da       	rcall	.-2744   	; 0x590 <__stack+0x91>
    1048:	af 94 96 90 	call	0x2b212c	; 0x2b212c <_etext+0x2af062>
    104c:	7e 59       	subi	r23, 0x9E	; 158
    104e:	43 4f       	sbci	r20, 0xF3	; 243
    1050:	65 6d       	ori	r22, 0xD5	; 213
    1052:	6f 75       	andi	r22, 0x5F	; 95
    1054:	93 b8       	out	0x03, r9	; 3
    1056:	a3 a5       	ldd	r26, Z+43	; 0x2b
    1058:	a2 97       	sbiw	r28, 0x22	; 34
    105a:	9a 7a       	andi	r25, 0xAA	; 170
    105c:	5f 60       	ori	r21, 0x0F	; 15
    105e:	54 52       	subi	r21, 0x24	; 36
    1060:	4f 58       	subi	r20, 0x8F	; 143
    1062:	71 74       	andi	r23, 0x41	; 65
    1064:	78 87       	std	Y+8, r23	; 0x08
    1066:	90 96       	adiw	r26, 0x20	; 32
    1068:	97 8b       	std	Z+23, r25	; 0x17
    106a:	94 93       	xch	Z, r25
    106c:	83 7c       	andi	r24, 0xC3	; 195
    106e:	77 79       	andi	r23, 0x97	; 151
    1070:	81 77       	andi	r24, 0x71	; 113
    1072:	7d 8d       	ldd	r23, Y+29	; 0x1d
    1074:	93 99       	sbic	0x12, 3	; 18
    1076:	ab b2       	in	r10, 0x1b	; 27
    1078:	b3 c9       	rjmp	.-3226   	; 0x3e0 <__trampolines_end+0x378>
    107a:	e0 64       	ori	r30, 0x40	; 64
    107c:	67 55       	subi	r22, 0x57	; 87
    107e:	43 5b       	subi	r20, 0xB3	; 179
    1080:	33 02       	muls	r19, r19
    1082:	55 87       	std	Z+13, r21	; 0x0d
    1084:	82 9c       	mul	r8, r2
    1086:	9f c8       	rjmp	.-3778   	; 0x1c6 <__trampolines_end+0x15e>
    1088:	e0 b5       	in	r30, 0x20	; 32
    108a:	7a 6f       	ori	r23, 0xFA	; 250
    108c:	69 61       	ori	r22, 0x19	; 25
    108e:	48 36       	cpi	r20, 0x68	; 104
    1090:	4a 72       	andi	r20, 0x2A	; 42
    1092:	97 a6       	std	Z+47, r9	; 0x2f
    1094:	a3 a9       	ldd	r26, Z+51	; 0x33
    1096:	c9 bc       	out	0x29, r12	; 41
    1098:	a5 7f       	andi	r26, 0xF5	; 245
    109a:	5b 55       	subi	r21, 0x5B	; 91
    109c:	54 41       	sbci	r21, 0x14	; 20
    109e:	43 55       	subi	r20, 0x53	; 83
    10a0:	79 86       	std	Y+9, r7	; 0x09
    10a2:	8f 8f       	std	Y+31, r24	; 0x1f
    10a4:	90 8d       	ldd	r25, Z+24	; 0x18
    10a6:	8d 7a       	andi	r24, 0xAD	; 173
    10a8:	6a 6e       	ori	r22, 0xEA	; 234
    10aa:	77 82       	std	Z+7, r7	; 0x07
    10ac:	82 7e       	andi	r24, 0xE2	; 226
    10ae:	84 90       	lpm	r8, Z
    10b0:	8e 89       	ldd	r24, Y+22	; 0x16
    10b2:	83 8b       	std	Z+19, r24	; 0x13
    10b4:	96 95       	lsr	r25
    10b6:	9a a6       	std	Y+42, r9	; 0x2a
    10b8:	ac ac       	ldd	r10, Y+60	; 0x3c
    10ba:	c5 d4       	rcall	.+2442   	; 0x1a46 <__stack+0x1547>
    10bc:	4b 5d       	subi	r20, 0xDB	; 219
    10be:	35 32       	cpi	r19, 0x25	; 37
    10c0:	6a 37       	cpi	r22, 0x7A	; 122
    10c2:	08 6a       	ori	r16, 0xA8	; 168
    10c4:	aa af       	std	Y+58, r26	; 0x3a
    10c6:	c3 af       	std	Z+59, r28	; 0x3b
    10c8:	b4 c5       	rjmp	.+2920   	; 0x1c32 <__stack+0x1733>
    10ca:	ac 5b       	subi	r26, 0xBC	; 188
    10cc:	42 3f       	cpi	r20, 0xF2	; 242
    10ce:	42 4c       	sbci	r20, 0xC2	; 194
    10d0:	43 68       	ori	r20, 0x83	; 131
    10d2:	8b c0       	rjmp	.+278    	; 0x11ea <__stack+0xceb>
    10d4:	cf b8       	out	0x0f, r12	; 15
    10d6:	b3 c3       	rjmp	.+1894   	; 0x183e <__stack+0x133f>
    10d8:	af 7f       	andi	r26, 0xFF	; 255
    10da:	60 32       	cpi	r22, 0x20	; 32
    10dc:	3c 4d       	sbci	r19, 0xDC	; 220
    10de:	4e 50       	subi	r20, 0x0E	; 14
    10e0:	70 89       	ldd	r23, Z+16	; 0x10
    10e2:	a0 aa       	std	Z+48, r10	; 0x30
    10e4:	94 82       	std	Z+4, r9	; 0x04
    10e6:	80 7b       	andi	r24, 0xB0	; 176
    10e8:	71 58       	subi	r23, 0x81	; 129
    10ea:	5c 73       	andi	r21, 0x3C	; 60
    10ec:	89 8f       	std	Y+25, r24	; 0x19
    10ee:	81 85       	ldd	r24, Z+9	; 0x09
    10f0:	96 92       	lac	Z, r9
    10f2:	86 7e       	andi	r24, 0xE6	; 230
    10f4:	7e 8e       	std	Y+30, r7	; 0x1e
    10f6:	94 98       	cbi	0x12, 4	; 18
    10f8:	9c 9b       	sbis	0x13, 4	; 19
    10fa:	b6 bb       	out	0x16, r27	; 22
    10fc:	ba d6       	rcall	.+3444   	; 0x1e72 <__stack+0x1973>
    10fe:	4b 47       	sbci	r20, 0x7B	; 123
    1100:	21 2d       	mov	r18, r1
    1102:	60 34       	cpi	r22, 0x40	; 64
    1104:	22 5f       	subi	r18, 0xF2	; 242
    1106:	b1 bc       	out	0x21, r11	; 33
    1108:	ca be       	out	0x3a, r12	; 58
    110a:	b0 c5       	rjmp	.+2912   	; 0x1c6c <__stack+0x176d>
    110c:	a9 52       	subi	r26, 0x29	; 41
    110e:	26 22       	and	r2, r22
    1110:	37 51       	subi	r19, 0x17	; 23
    1112:	59 73       	andi	r21, 0x39	; 57
    1114:	95 d6       	rcall	.+3370   	; 0x1e40 <__stack+0x1941>
    1116:	e4 c8       	rjmp	.-3640   	; 0x2e0 <__trampolines_end+0x278>
    1118:	b8 a8       	ldd	r11, Y+48	; 0x30
    111a:	9a 7b       	andi	r25, 0xBA	; 186
    111c:	49 22       	and	r4, r25
    111e:	34 4e       	sbci	r19, 0xE4	; 228
    1120:	68 64       	ori	r22, 0x48	; 72
    1122:	7b 8f       	std	Y+27, r23	; 0x1b
    1124:	a7 b7       	in	r26, 0x37	; 55
    1126:	96 6a       	ori	r25, 0xA6	; 166
    1128:	71 6e       	ori	r23, 0xE1	; 225
    112a:	6a 58       	subi	r22, 0x8A	; 138
    112c:	56 6b       	ori	r21, 0xB6	; 182
    112e:	8d 97       	sbiw	r24, 0x2d	; 45
    1130:	8e 84       	ldd	r8, Y+14	; 0x0e
    1132:	96 98       	cbi	0x12, 6	; 18
    1134:	94 7f       	andi	r25, 0xF4	; 244
    1136:	76 87       	std	Z+14, r23	; 0x0e
    1138:	91 89       	ldd	r25, Z+17	; 0x11
    113a:	92 92       	st	-Z, r9
    113c:	a1 ad       	ldd	r26, Z+57	; 0x39
    113e:	b2 af       	std	Z+58, r27	; 0x3a
    1140:	c3 da       	rcall	.-2682   	; 0x6c8 <__stack+0x1c9>
    1142:	3f 1b       	sub	r19, r31
    1144:	44 29       	or	r20, r4
    1146:	46 38       	cpi	r20, 0x86	; 134
    1148:	40 89       	ldd	r20, Z+16	; 0x10
    114a:	c5 d1       	rcall	.+906    	; 0x14d6 <__stack+0xfd7>
    114c:	b5 b4       	in	r11, 0x25	; 37
    114e:	b7 a7       	std	Z+47, r27	; 0x2f
    1150:	67 33       	cpi	r22, 0x37	; 55
    1152:	17 37       	cpi	r17, 0x77	; 119
    1154:	51 5a       	subi	r21, 0xA1	; 161
    1156:	77 93       	lat	Z, r23
    1158:	d7 e7       	ldi	r29, 0x77	; 119
    115a:	de b9       	out	0x0e, r29	; 14
    115c:	9c 90       	ld	r9, X
    115e:	7a 46       	sbci	r23, 0x6A	; 106
    1160:	1d 14       	cp	r1, r13
    1162:	41 71       	andi	r20, 0x11	; 17
    1164:	7f 8c       	ldd	r7, Y+31	; 0x1f
    1166:	8c a9       	ldd	r24, Y+52	; 0x34
    1168:	bf 9c       	mul	r11, r15
    116a:	77 5b       	subi	r23, 0xB7	; 183
    116c:	5c 6c       	ori	r21, 0xCC	; 204
    116e:	63 56       	subi	r22, 0x63	; 99
    1170:	6a 8c       	ldd	r6, Y+26	; 0x1a
    1172:	9f a0       	ldd	r9, Y+39	; 0x27
    1174:	8b 8e       	std	Y+27, r8	; 0x1b
    1176:	8f 8f       	std	Y+31, r24	; 0x1f
    1178:	7f 6f       	ori	r23, 0xFF	; 255
    117a:	71 84       	ldd	r7, Z+9	; 0x09
    117c:	88 88       	ldd	r8, Y+16	; 0x10
    117e:	8d 99       	sbic	0x11, 5	; 17
    1180:	af b3       	in	r26, 0x1f	; 31
    1182:	ad ad       	ldd	r26, Y+61	; 0x3d
    1184:	b6 e4       	ldi	r27, 0x46	; 70
    1186:	89 3e       	cpi	r24, 0xE9	; 233
    1188:	24 24       	eor	r2, r4
    118a:	46 39       	cpi	r20, 0x96	; 150
    118c:	24 71       	andi	r18, 0x14	; 20
    118e:	c3 d6       	rcall	.+3462   	; 0x1f16 <__stack+0x1a17>
    1190:	c6 bf       	out	0x36, r28	; 54
    1192:	b1 a7       	std	Z+41, r27	; 0x29
    1194:	9f 35       	cpi	r25, 0x5F	; 95
    1196:	0f 2d       	mov	r16, r15
    1198:	42 5f       	subi	r20, 0xF2	; 242
    119a:	79 7f       	andi	r23, 0xF9	; 249
    119c:	b4 ed       	ldi	r27, 0xD4	; 212
    119e:	e6 c4       	rjmp	.+2508   	; 0x1b6c <__stack+0x166d>
    11a0:	98 86       	std	Y+8, r9	; 0x08
    11a2:	79 67       	ori	r23, 0x79	; 121
    11a4:	2b 1e       	adc	r2, r27
    11a6:	45 5e       	subi	r20, 0xE5	; 229
    11a8:	82 8d       	ldd	r24, Z+26	; 0x1a
    11aa:	8c a0       	ldd	r8, Y+36	; 0x24
    11ac:	b1 aa       	std	Z+49, r11	; 0x31
    11ae:	83 66       	ori	r24, 0x63	; 99
    11b0:	5b 6c       	ori	r21, 0xCB	; 203
    11b2:	63 5a       	subi	r22, 0xA3	; 163
    11b4:	5b 75       	andi	r21, 0x5B	; 91
    11b6:	99 a1       	ldd	r25, Y+33	; 0x21
    11b8:	93 88       	ldd	r9, Z+19	; 0x13
    11ba:	91 8c       	ldd	r9, Z+25	; 0x19
    11bc:	81 71       	andi	r24, 0x11	; 17
    11be:	70 78       	andi	r23, 0x80	; 128
    11c0:	84 88       	ldd	r8, Z+20	; 0x14
    11c2:	90 9f       	mul	r25, r16
    11c4:	a3 a5       	ldd	r26, Z+43	; 0x2b
    11c6:	a5 ac       	ldd	r10, Z+61	; 0x3d
    11c8:	a6 af       	std	Z+62, r26	; 0x3e
    11ca:	cd 7e       	andi	r28, 0xED	; 237
    11cc:	2f 16       	cp	r2, r31
    11ce:	42 50       	subi	r20, 0x02	; 2
    11d0:	3e 29       	or	r19, r14
    11d2:	4f b9       	out	0x0f, r20	; 15
    11d4:	cd cd       	rjmp	.-1126   	; 0xd70 <__stack+0x871>
    11d6:	b0 ad       	ldd	r27, Z+56	; 0x38
    11d8:	be a5       	ldd	r27, Y+46	; 0x2e
    11da:	4c 1b       	sub	r20, r28
    11dc:	43 4e       	sbci	r20, 0xE3	; 227
    11de:	57 5e       	subi	r21, 0xE7	; 231
    11e0:	7a a2       	std	Y+34, r7	; 0x22
    11e2:	e6 de       	rcall	.-564    	; 0xfb0 <__stack+0xab1>
    11e4:	b5 a5       	ldd	r27, Z+45	; 0x2d
    11e6:	9b 8c       	ldd	r9, Y+27	; 0x1b
    11e8:	5f 38       	cpi	r21, 0x8F	; 143
    11ea:	2d 3b       	cpi	r18, 0xBD	; 189
    11ec:	65 5c       	subi	r22, 0xC5	; 197
    11ee:	76 97       	sbiw	r30, 0x16	; 22
    11f0:	a5 ac       	ldd	r10, Z+61	; 0x3d
    11f2:	ae 93       	st	-X, r26	; undefined
    11f4:	7b 70       	andi	r23, 0x0B	; 11
    11f6:	66 60       	ori	r22, 0x06	; 6
    11f8:	57 5a       	subi	r21, 0xA7	; 167
    11fa:	6d 7e       	andi	r22, 0xED	; 237
    11fc:	9a 93       	st	-Y, r25
    11fe:	8c 8e       	std	Y+28, r8	; 0x1c
    1200:	87 84       	ldd	r8, Z+15	; 0x0f
    1202:	7c 6f       	ori	r23, 0xFC	; 252
    1204:	72 83       	std	Z+2, r23	; 0x02
    1206:	89 8f       	std	Y+25, r24	; 0x19
    1208:	8e 90       	ld	r8, -X
    120a:	a2 a9       	ldd	r26, Z+50	; 0x32
    120c:	a7 aa       	std	Z+55, r10	; 0x37
    120e:	a5 b3       	in	r26, 0x15	; 21
    1210:	cf be       	out	0x3f, r12	; 63
    1212:	1a 1b       	sub	r17, r26
    1214:	53 30       	cpi	r21, 0x03	; 3
    1216:	4c 19       	sub	r20, r12
    1218:	3c b6       	in	r3, 0x3c	; 60
    121a:	bb c1       	rjmp	.+886    	; 0x1592 <__stack+0x1093>
    121c:	aa bb       	out	0x1a, r26	; 26
    121e:	d8 ab       	std	Y+48, r29	; 0x30
    1220:	5d 39       	cpi	r21, 0x9D	; 157
    1222:	32 52       	subi	r19, 0x22	; 34
    1224:	35 32       	cpi	r19, 0x25	; 37
    1226:	64 98       	cbi	0x0c, 4	; 12
    1228:	d2 ca       	rjmp	.-2652   	; 0x7ce <__stack+0x2cf>
    122a:	be cc       	rjmp	.-1668   	; 0xba8 <__stack+0x6a9>
    122c:	c0 9b       	sbis	0x18, 0	; 24
    122e:	69 40       	sbci	r22, 0x09	; 9
    1230:	44 3e       	cpi	r20, 0xE4	; 228
    1232:	32 37       	cpi	r19, 0x72	; 114
    1234:	63 98       	cbi	0x0c, 3	; 12
    1236:	a3 a1       	ldd	r26, Z+35	; 0x23
    1238:	b1 ba       	out	0x11, r11	; 17
    123a:	9b 7f       	andi	r25, 0xFB	; 251
    123c:	61 62       	ori	r22, 0x21	; 33
    123e:	54 4e       	sbci	r21, 0xE4	; 228
    1240:	50 66       	ori	r21, 0x60	; 96
    1242:	8f 96       	adiw	r24, 0x2f	; 47
    1244:	89 8c       	ldd	r8, Y+25	; 0x19
    1246:	96 96       	adiw	r26, 0x26	; 38
    1248:	82 6d       	ori	r24, 0xD2	; 210
    124a:	75 81       	ldd	r23, Z+5	; 0x05
    124c:	82 7c       	andi	r24, 0xC2	; 194
    124e:	8c 91       	ld	r24, X
    1250:	aa ad       	ldd	r26, Y+58	; 0x3a
    1252:	a8 a4       	ldd	r10, Y+40	; 0x28
    1254:	b9 b5       	in	r27, 0x29	; 41
    1256:	b1 cf       	rjmp	.-158    	; 0x11ba <__stack+0xcbb>
    1258:	6a 48       	sbci	r22, 0x8A	; 138
    125a:	49 2e       	mov	r4, r25
    125c:	3f 11       	cpse	r19, r15
    125e:	1f a3       	std	Y+39, r17	; 0x27
    1260:	a3 91       	.word	0x91a3	; ????
    1262:	b2 c1       	rjmp	.+868    	; 0x15c8 <__stack+0x10c9>
    1264:	cb c8       	rjmp	.-3690   	; 0x3fc <__trampolines_end+0x394>
    1266:	81 5a       	subi	r24, 0xA1	; 161
    1268:	67 55       	subi	r22, 0x57	; 87
    126a:	38 27       	eor	r19, r24
    126c:	3e 83       	std	Y+6, r19	; 0x06
    126e:	97 a8       	ldd	r9, Z+55	; 0x37
    1270:	bd c8       	rjmp	.-3718   	; 0x3ec <__trampolines_end+0x384>
    1272:	cd b0       	in	r12, 0x0d	; 13
    1274:	9d 86       	std	Y+13, r9	; 0x0d
    1276:	65 52       	subi	r22, 0x25	; 37
    1278:	37 31       	cpi	r19, 0x17	; 23
    127a:	52 65       	ori	r21, 0x52	; 82
    127c:	79 83       	std	Y+1, r23	; 0x01
    127e:	9b bb       	out	0x1b, r25	; 27
    1280:	a4 91       	lpm	r26, Z
    1282:	8f 7f       	andi	r24, 0xFF	; 255
    1284:	64 4d       	sbci	r22, 0xD4	; 212
    1286:	43 64       	ori	r20, 0x43	; 67
    1288:	71 74       	andi	r23, 0x41	; 65
    128a:	74 87       	std	Z+12, r23	; 0x0c
    128c:	9b 95       	.word	0x959b	; ????
    128e:	84 81       	ldd	r24, Z+4	; 0x04
    1290:	86 8a       	std	Z+22, r8	; 0x16
    1292:	83 7e       	andi	r24, 0xE3	; 227
    1294:	93 98       	cbi	0x12, 3	; 18
    1296:	96 9e       	mul	r9, r22
    1298:	a3 a0       	ldd	r10, Z+35	; 0x23
    129a:	ad a6       	std	Y+45, r10	; 0x2d
    129c:	a3 ad       	ldd	r26, Z+59	; 0x3b
    129e:	c9 31       	cpi	r28, 0x19	; 25
    12a0:	4e 51       	subi	r20, 0x1E	; 30
    12a2:	3e 52       	subi	r19, 0x2E	; 46
    12a4:	12 41       	sbci	r17, 0x12	; 18
    12a6:	8c 6b       	ori	r24, 0xBC	; 188
    12a8:	8c 9f       	mul	r24, r28
    12aa:	b6 d1       	rcall	.+876    	; 0x1618 <__stack+0x1119>
    12ac:	a7 8d       	ldd	r26, Z+31	; 0x1f
    12ae:	93 85       	ldd	r25, Z+11	; 0x0b
    12b0:	60 45       	sbci	r22, 0x50	; 80
    12b2:	3d 60       	ori	r19, 0x0D	; 13
    12b4:	68 6b       	ori	r22, 0xB8	; 184
    12b6:	84 a5       	ldd	r24, Z+44	; 0x2c
    12b8:	b6 b2       	in	r11, 0x16	; 22
    12ba:	ac b1       	in	r26, 0x0c	; 12
    12bc:	a2 7d       	andi	r26, 0xD2	; 210
    12be:	74 50       	subi	r23, 0x04	; 4
    12c0:	56 58       	subi	r21, 0x86	; 134
    12c2:	46 5b       	subi	r20, 0xB6	; 182
    12c4:	6e 87       	std	Y+14, r22	; 0x0e
    12c6:	94 8d       	ldd	r25, Z+28	; 0x1c
    12c8:	9c 94 90 80 	jmp	0x250120	; 0x250120 <_etext+0x24d056>
    12cc:	6b 66       	ori	r22, 0x6B	; 107
    12ce:	64 62       	ori	r22, 0x24	; 36
    12d0:	6d 69       	ori	r22, 0x9D	; 157
    12d2:	78 84       	ldd	r7, Y+8	; 0x08
    12d4:	80 87       	std	Z+8, r24	; 0x08
    12d6:	89 8e       	std	Y+25, r8	; 0x19
    12d8:	94 8b       	std	Z+20, r25	; 0x14
    12da:	8f 97       	sbiw	r24, 0x2f	; 47
    12dc:	8f 95 98 96 	call	0x632d30	; 0x632d30 <_etext+0x62fc66>
    12e0:	9f a0       	ldd	r9, Y+39	; 0x27
    12e2:	9e ab       	std	Y+54, r25	; 0x36
    12e4:	a8 c6       	rjmp	.+3408   	; 0x2036 <__stack+0x1b37>
    12e6:	36 72       	andi	r19, 0x26	; 38
    12e8:	71 40       	sbci	r23, 0x01	; 1
    12ea:	46 25       	eor	r20, r6
    12ec:	1d 74       	andi	r17, 0x4D	; 77
    12ee:	48 5b       	subi	r20, 0xB8	; 184
    12f0:	94 a6       	std	Z+44, r9	; 0x2c
    12f2:	c8 a1       	ldd	r28, Y+32	; 0x20
    12f4:	a4 b9       	out	0x04, r26	; 4
    12f6:	88 7b       	andi	r24, 0xB8	; 184
    12f8:	7b 5d       	subi	r23, 0xDB	; 219
    12fa:	68 52       	subi	r22, 0x28	; 40
    12fc:	58 7b       	andi	r21, 0xB8	; 184
    12fe:	7f 92       	push	r7
    1300:	93 97       	sbiw	r26, 0x23	; 35
    1302:	ab 94       	des	10
    1304:	95 95       	asr	r25
    1306:	7e 72       	andi	r23, 0x2E	; 46
    1308:	6c 5e       	subi	r22, 0xEC	; 236
    130a:	6c 57       	subi	r22, 0x7C	; 124
    130c:	62 75       	andi	r22, 0x52	; 82
    130e:	76 7f       	andi	r23, 0xF6	; 246
    1310:	7f 86       	std	Y+15, r7	; 0x0f
    1312:	88 76       	andi	r24, 0x68	; 104
    1314:	7c 7a       	andi	r23, 0xAC	; 172
    1316:	79 79       	andi	r23, 0x99	; 153
    1318:	71 79       	andi	r23, 0x91	; 145
    131a:	7d 7b       	andi	r23, 0xBD	; 189
    131c:	84 81       	ldd	r24, Z+4	; 0x04
    131e:	88 88       	ldd	r8, Y+16	; 0x10
    1320:	85 8c       	ldd	r8, Z+29	; 0x1d
    1322:	91 8e       	std	Z+25, r9	; 0x19
    1324:	92 97       	sbiw	r26, 0x22	; 34
    1326:	97 9c       	mul	r9, r7
    1328:	a1 9c       	mul	r10, r1
    132a:	ac a5       	ldd	r26, Y+44	; 0x2c
    132c:	b1 c6       	rjmp	.+3426   	; 0x2090 <__stack+0x1b91>
    132e:	3b 6d       	ori	r19, 0xDB	; 219
    1330:	6a 37       	cpi	r22, 0x7A	; 122
    1332:	48 1b       	sub	r20, r24
    1334:	66 5b       	subi	r22, 0xB6	; 182
    1336:	43 90       	.word	0x9043	; ????
    1338:	7b a0       	ldd	r7, Y+35	; 0x23
    133a:	bc 98       	cbi	0x17, 4	; 23
    133c:	bb ac       	ldd	r11, Y+59	; 0x3b
    133e:	90 97       	sbiw	r26, 0x20	; 32
    1340:	79 73       	andi	r23, 0x39	; 57
    1342:	76 65       	ori	r23, 0x56	; 86
    1344:	7c 64       	ori	r23, 0x4C	; 76
    1346:	71 82       	std	Z+1, r7	; 0x01
    1348:	7a 89       	ldd	r23, Y+18	; 0x12
    134a:	84 85       	ldd	r24, Z+12	; 0x0c
    134c:	91 7b       	andi	r25, 0xB1	; 177
    134e:	86 83       	std	Z+6, r24	; 0x06
    1350:	7d 7f       	andi	r23, 0xFD	; 253
    1352:	79 79       	andi	r23, 0x99	; 153
    1354:	7e 7b       	andi	r23, 0xBE	; 190
    1356:	74 72       	andi	r23, 0x24	; 36
    1358:	75 75       	andi	r23, 0x55	; 85
    135a:	6b 6f       	ori	r22, 0xFB	; 251
    135c:	76 75       	andi	r23, 0x56	; 86
    135e:	7a 7d       	andi	r23, 0xDA	; 218
    1360:	83 87       	std	Z+11, r24	; 0x0b
    1362:	85 8a       	std	Z+21, r8	; 0x15
    1364:	88 83       	st	Y, r24
    1366:	82 83       	std	Z+2, r24	; 0x02
    1368:	84 84       	ldd	r8, Z+12	; 0x0c
    136a:	80 84       	ldd	r8, Z+8	; 0x08
    136c:	8a 8c       	ldd	r8, Y+26	; 0x1a
    136e:	8d 93       	st	X+, r24
    1370:	94 9a       	sbi	0x12, 4	; 18
    1372:	a1 9e       	mul	r10, r17
    1374:	aa af       	std	Y+58, r26	; 0x3a
    1376:	b8 47       	sbci	r27, 0x78	; 120
    1378:	7d 86       	std	Y+13, r7	; 0x0d
    137a:	4f 5d       	subi	r20, 0xDF	; 223
    137c:	32 61       	ori	r19, 0x12	; 18
    137e:	3d 40       	sbci	r19, 0x0D	; 13
    1380:	76 5c       	subi	r23, 0xC6	; 198
    1382:	80 94       	com	r8
    1384:	84 b8       	out	0x04, r8	; 4
    1386:	99 96       	adiw	r26, 0x29	; 41
    1388:	ae 97       	sbiw	r28, 0x2e	; 46
    138a:	98 90       	.word	0x9098	; ????
    138c:	81 8d       	ldd	r24, Z+25	; 0x19
    138e:	6b 70       	andi	r22, 0x0B	; 11
    1390:	71 68       	ori	r23, 0x81	; 129
    1392:	6e 63       	ori	r22, 0x3E	; 62
    1394:	6d 73       	andi	r22, 0x3D	; 61
    1396:	75 88       	ldd	r7, Z+21	; 0x15
    1398:	81 8e       	std	Z+25, r8	; 0x19
    139a:	8e 8c       	ldd	r8, Y+30	; 0x1e
    139c:	92 87       	std	Z+10, r25	; 0x0a
    139e:	8c 77       	andi	r24, 0x7C	; 124
    13a0:	71 6f       	ori	r23, 0xF1	; 241
    13a2:	6c 64       	ori	r22, 0x4C	; 76
    13a4:	64 6b       	ori	r22, 0xB4	; 180
    13a6:	6f 70       	andi	r22, 0x0F	; 15
    13a8:	74 83       	std	Z+4, r23	; 0x04
    13aa:	86 88       	ldd	r8, Z+22	; 0x16
    13ac:	89 91       	ld	r24, Y+
    13ae:	93 8e       	std	Z+27, r9	; 0x1b
    13b0:	90 8c       	ldd	r9, Z+24	; 0x18
    13b2:	8b 88       	ldd	r8, Y+19	; 0x13
    13b4:	83 87       	std	Z+11, r24	; 0x0b
    13b6:	88 8a       	std	Y+16, r8	; 0x10
    13b8:	86 92       	lac	Z, r8
    13ba:	9a a0       	ldd	r9, Y+34	; 0x22
    13bc:	ab b8       	out	0x0b, r10	; 11
    13be:	68 9f       	mul	r22, r24
    13c0:	8c 6c       	ori	r24, 0xCC	; 204
    13c2:	6c 4a       	sbci	r22, 0xAC	; 172
    13c4:	67 5c       	subi	r22, 0xC7	; 199
    13c6:	40 64       	ori	r20, 0x40	; 64
    13c8:	4c 5e       	subi	r20, 0xEC	; 236
    13ca:	78 74       	andi	r23, 0x48	; 72
    13cc:	9f 8b       	std	Y+23, r25	; 0x17
    13ce:	94 aa       	std	Z+52, r9	; 0x34
    13d0:	92 9c       	mul	r9, r2
    13d2:	9f 96       	adiw	r26, 0x2f	; 47
    13d4:	9d 87       	std	Y+13, r25	; 0x0d
    13d6:	8e 81       	ldd	r24, Y+6	; 0x06
    13d8:	74 7a       	andi	r23, 0xA4	; 164
    13da:	6a 6c       	ori	r22, 0xCA	; 202
    13dc:	61 63       	ori	r22, 0x31	; 49
    13de:	72 69       	ori	r23, 0x92	; 146
    13e0:	7c 7c       	andi	r23, 0xCC	; 204
    13e2:	80 8c       	ldd	r8, Z+24	; 0x18
    13e4:	87 97       	sbiw	r24, 0x27	; 39
    13e6:	86 86       	std	Z+14, r8	; 0x0e
    13e8:	86 77       	andi	r24, 0x76	; 118
    13ea:	73 71       	andi	r23, 0x13	; 19
    13ec:	70 6e       	ori	r23, 0xE0	; 224
    13ee:	69 74       	andi	r22, 0x49	; 73
    13f0:	72 76       	andi	r23, 0x62	; 98
    13f2:	7c 7d       	andi	r23, 0xDC	; 220
    13f4:	82 82       	std	Z+2, r8	; 0x02
    13f6:	86 8d       	ldd	r24, Z+30	; 0x1e
    13f8:	88 91       	.word	0x9188	; ????
    13fa:	91 90       	ld	r9, Z+
    13fc:	91 91       	ld	r25, Z+
    13fe:	91 8d       	ldd	r25, Z+25	; 0x19
    1400:	8f 93       	push	r24
    1402:	8d 96       	adiw	r24, 0x2d	; 45
    1404:	9c a8       	ldd	r9, Y+52	; 0x34
    1406:	92 a9       	ldd	r25, Z+50	; 0x32
    1408:	8a 6e       	ori	r24, 0xEA	; 234
    140a:	7c 68       	ori	r23, 0x8C	; 140
    140c:	5e 63       	ori	r21, 0x3E	; 62
    140e:	55 5d       	subi	r21, 0xD5	; 213
    1410:	5b 61       	ori	r21, 0x1B	; 27
    1412:	68 68       	ori	r22, 0x88	; 136
    1414:	87 74       	andi	r24, 0x47	; 71
    1416:	8f 9d       	mul	r24, r15
    1418:	8c a0       	ldd	r8, Y+36	; 0x24
    141a:	99 9c       	mul	r9, r9
    141c:	9f 8d       	ldd	r25, Y+31	; 0x1f
    141e:	9b 89       	ldd	r25, Y+19	; 0x13
    1420:	7c 80       	ldd	r7, Y+4	; 0x04
    1422:	73 74       	andi	r23, 0x43	; 67
    1424:	6a 6a       	ori	r22, 0xAA	; 170
    1426:	6e 64       	ori	r22, 0x4E	; 78
    1428:	73 70       	andi	r23, 0x03	; 3
    142a:	7d 7a       	andi	r23, 0xAD	; 173
    142c:	80 8b       	std	Z+16, r24	; 0x10
    142e:	7f 88       	ldd	r7, Y+23	; 0x17
    1430:	86 85       	ldd	r24, Z+14	; 0x0e
    1432:	82 76       	andi	r24, 0x62	; 98
    1434:	7b 79       	andi	r23, 0x9B	; 155
    1436:	75 74       	andi	r23, 0x45	; 69
    1438:	6c 73       	andi	r22, 0x3C	; 60
    143a:	74 74       	andi	r23, 0x44	; 68
    143c:	79 76       	andi	r23, 0x69	; 105
    143e:	84 82       	std	Z+4, r8	; 0x04
    1440:	84 90       	lpm	r8, Z
    1442:	8e 95 93 91 	call	0x612326	; 0x612326 <_etext+0x60f25c>
    1446:	96 8e       	std	Z+30, r9	; 0x1e
    1448:	90 93 95 97 	sts	0x9795, r25
    144c:	94 9f       	mul	r25, r20
    144e:	a1 9f       	mul	r26, r17
    1450:	8b 89       	ldd	r24, Y+19	; 0x13
    1452:	77 6b       	ori	r23, 0xB7	; 183
    1454:	5c 76       	andi	r21, 0x6C	; 108
    1456:	3f 69       	ori	r19, 0x9F	; 159
    1458:	62 4d       	sbci	r22, 0xD2	; 210
    145a:	75 6a       	ori	r23, 0xA5	; 165
    145c:	81 82       	std	Z+1, r8	; 0x01
    145e:	7d 96       	adiw	r30, 0x1d	; 29
    1460:	82 98       	cbi	0x10, 2	; 16
    1462:	9a 93       	st	-Y, r25
    1464:	9b 96       	adiw	r26, 0x2b	; 43
    1466:	96 8e       	std	Z+30, r9	; 0x1e
    1468:	86 8a       	std	Z+22, r8	; 0x16
    146a:	7b 7b       	andi	r23, 0xBB	; 187
    146c:	72 6f       	ori	r23, 0xF2	; 242
    146e:	6e 6a       	ori	r22, 0xAE	; 174
    1470:	73 72       	andi	r23, 0x23	; 35
    1472:	73 76       	andi	r23, 0x63	; 99
    1474:	7f 81       	ldd	r23, Y+7	; 0x07
    1476:	80 86       	std	Z+8, r8	; 0x08
    1478:	81 7f       	andi	r24, 0xF1	; 241
    147a:	83 7a       	andi	r24, 0xA3	; 163
    147c:	80 7d       	andi	r24, 0xD0	; 208
    147e:	74 7e       	andi	r23, 0xE4	; 228
    1480:	73 79       	andi	r23, 0x93	; 147
    1482:	78 75       	andi	r23, 0x58	; 88
    1484:	7b 77       	andi	r23, 0x7B	; 123
    1486:	7e 7b       	andi	r23, 0xBE	; 190
    1488:	81 8a       	std	Z+17, r8	; 0x11
    148a:	88 8c       	ldd	r8, Y+24	; 0x18
    148c:	8d 91       	ld	r24, X+
    148e:	96 90       	elpm	r9, Z
    1490:	96 91       	elpm	r25, Z
    1492:	93 96       	adiw	r26, 0x23	; 35
    1494:	97 9a       	sbi	0x12, 7	; 18
    1496:	a1 70       	andi	r26, 0x01	; 1
    1498:	9a 85       	ldd	r25, Y+10	; 0x0a
    149a:	79 7a       	andi	r23, 0xA9	; 169
    149c:	6d 6d       	ori	r22, 0xDD	; 221
    149e:	5a 5b       	subi	r21, 0xBA	; 186
    14a0:	5d 4f       	sbci	r21, 0xFD	; 253
    14a2:	65 5d       	subi	r22, 0xD5	; 213
    14a4:	6e 78       	andi	r22, 0x8E	; 142
    14a6:	75 90       	lpm	r7, Z+
    14a8:	8b 98       	cbi	0x11, 3	; 17
    14aa:	a2 9b       	sbis	0x14, 2	; 20
    14ac:	a1 9a       	sbi	0x14, 1	; 20
    14ae:	98 99       	sbic	0x13, 0	; 19
    14b0:	87 8b       	std	Z+23, r24	; 0x17
    14b2:	80 78       	andi	r24, 0x80	; 128
    14b4:	78 71       	andi	r23, 0x18	; 24
    14b6:	6d 6d       	ori	r22, 0xDD	; 221
    14b8:	6a 71       	andi	r22, 0x1A	; 26
    14ba:	6e 71       	andi	r22, 0x1E	; 30
    14bc:	76 7f       	andi	r23, 0xF6	; 246
    14be:	7f 80       	ldd	r7, Y+7	; 0x07
    14c0:	86 83       	std	Z+6, r24	; 0x06
    14c2:	86 81       	ldd	r24, Z+6	; 0x06
    14c4:	7e 7e       	andi	r23, 0xEE	; 238
    14c6:	76 78       	andi	r23, 0x86	; 134
    14c8:	76 72       	andi	r23, 0x26	; 38
    14ca:	75 74       	andi	r23, 0x45	; 69
    14cc:	77 78       	andi	r23, 0x87	; 135
    14ce:	7b 81       	ldd	r23, Y+3	; 0x03
    14d0:	81 86       	std	Z+9, r8	; 0x09
    14d2:	8a 8d       	ldd	r24, Y+26	; 0x1a
    14d4:	90 91 93 93 	lds	r25, 0x9393
    14d8:	94 97       	sbiw	r26, 0x24	; 36
    14da:	95 99       	sbic	0x12, 5	; 18
    14dc:	9b 9d       	mul	r25, r11
    14de:	a3 91       	.word	0x91a3	; ????
    14e0:	94 99       	sbic	0x12, 4	; 18
    14e2:	7a 70       	andi	r23, 0x0A	; 10
    14e4:	66 55       	subi	r22, 0x56	; 86
    14e6:	4e 49       	sbci	r20, 0x9E	; 158
    14e8:	50 52       	subi	r21, 0x20	; 32
    14ea:	51 66       	ori	r21, 0x61	; 97
    14ec:	69 78       	andi	r22, 0x89	; 137
    14ee:	84 92       	xch	Z, r8
    14f0:	9c 97       	sbiw	r26, 0x2c	; 44
    14f2:	a2 a6       	std	Z+42, r10	; 0x2a
    14f4:	a0 9e       	mul	r10, r16
    14f6:	99 91       	ld	r25, Y+
    14f8:	8d 80       	ldd	r8, Y+5	; 0x05
    14fa:	81 75       	andi	r24, 0x51	; 81
    14fc:	72 6f       	ori	r23, 0xF2	; 242
    14fe:	6e 6f       	ori	r22, 0xFE	; 254
    1500:	6d 71       	andi	r22, 0x1D	; 29
    1502:	76 77       	andi	r23, 0x76	; 118
    1504:	7a 7e       	andi	r23, 0xEA	; 234
    1506:	82 84       	ldd	r8, Z+10	; 0x0a
    1508:	83 85       	ldd	r24, Z+11	; 0x0b
    150a:	83 7e       	andi	r24, 0xE3	; 227
    150c:	7c 7b       	andi	r23, 0xBC	; 188
    150e:	79 77       	andi	r23, 0x79	; 121
    1510:	79 7a       	andi	r23, 0xA9	; 169
    1512:	79 7a       	andi	r23, 0xA9	; 169
    1514:	7e 7d       	andi	r23, 0xDE	; 222
    1516:	7e 7c       	andi	r23, 0xCE	; 206
    1518:	7d 80       	ldd	r7, Y+5	; 0x05
    151a:	7f 81       	ldd	r23, Y+7	; 0x07
    151c:	82 85       	ldd	r24, Z+10	; 0x0a
    151e:	8a 8c       	ldd	r8, Y+26	; 0x1a
    1520:	90 91 91 95 	lds	r25, 0x9591
    1524:	93 91       	.word	0x9193	; ????
    1526:	92 91       	ld	r25, -Z
    1528:	90 91 91 8e 	lds	r25, 0x8E91
    152c:	85 7e       	andi	r24, 0xE5	; 229
    152e:	7c 73       	andi	r23, 0x3C	; 60
    1530:	6c 68       	ori	r22, 0x8C	; 140
    1532:	66 62       	ori	r22, 0x26	; 38
    1534:	62 64       	ori	r22, 0x42	; 66
    1536:	64 6a       	ori	r22, 0xA4	; 164
    1538:	72 77       	andi	r23, 0x72	; 114
    153a:	79 84       	ldd	r7, Y+9	; 0x09
    153c:	8c 90       	ld	r8, X
    153e:	8f 94 95 91 	call	0x23232a	; 0x23232a <_etext+0x22f260>
    1542:	91 90       	ld	r9, Z+
    1544:	8a 87       	std	Y+10, r24	; 0x0a
    1546:	86 81       	ldd	r24, Z+6	; 0x06
    1548:	7e 7e       	andi	r23, 0xEE	; 238
    154a:	7e 7b       	andi	r23, 0xBE	; 190
    154c:	7a 7b       	andi	r23, 0xBA	; 186
    154e:	79 78       	andi	r23, 0x89	; 137
    1550:	78 79       	andi	r23, 0x98	; 152
    1552:	77 77       	andi	r23, 0x77	; 119
    1554:	78 77       	andi	r23, 0x78	; 120
    1556:	78 79       	andi	r23, 0x98	; 152
    1558:	79 77       	andi	r23, 0x79	; 121
    155a:	7a 79       	andi	r23, 0x9A	; 154
    155c:	7c 7c       	andi	r23, 0xCC	; 204
    155e:	7e 7f       	andi	r23, 0xFE	; 254
    1560:	7f 80       	ldd	r7, Y+7	; 0x07
    1562:	82 82       	std	Z+2, r8	; 0x02
    1564:	83 85       	ldd	r24, Z+11	; 0x0b
    1566:	84 86       	std	Z+12, r8	; 0x0c
    1568:	89 89       	ldd	r24, Y+17	; 0x11
    156a:	8a 8b       	std	Y+18, r24	; 0x12
    156c:	8c 8d       	ldd	r24, Y+28	; 0x1c
    156e:	8c 8d       	ldd	r24, Y+28	; 0x1c
    1570:	8c 8d       	ldd	r24, Y+28	; 0x1c
    1572:	8e 8e       	std	Y+30, r8	; 0x1e
    1574:	90 95       	com	r25
    1576:	94 8c       	ldd	r9, Z+28	; 0x1c
    1578:	88 85       	ldd	r24, Y+8	; 0x08
    157a:	7b 73       	andi	r23, 0x3B	; 59
    157c:	71 68       	ori	r23, 0x81	; 129
    157e:	62 61       	ori	r22, 0x12	; 18
    1580:	61 60       	ori	r22, 0x01	; 1
    1582:	61 6b       	ori	r22, 0xB1	; 177
    1584:	6f 71       	andi	r22, 0x1F	; 31
    1586:	7b 85       	ldd	r23, Y+11	; 0x0b
    1588:	87 8d       	ldd	r24, Z+31	; 0x1f
    158a:	95 97       	sbiw	r26, 0x25	; 37
    158c:	95 97       	sbiw	r26, 0x25	; 37
    158e:	94 91       	lpm	r25, Z
    1590:	8e 8c       	ldd	r8, Y+30	; 0x1e
    1592:	87 82       	std	Z+7, r8	; 0x07
    1594:	82 80       	ldd	r8, Z+2	; 0x02
    1596:	7d 7b       	andi	r23, 0xBD	; 189
    1598:	7c 78       	andi	r23, 0x8C	; 140
    159a:	75 73       	andi	r23, 0x35	; 53
    159c:	71 71       	andi	r23, 0x11	; 17
    159e:	71 73       	andi	r23, 0x31	; 49
    15a0:	72 72       	andi	r23, 0x22	; 34
    15a2:	75 76       	andi	r23, 0x65	; 101
    15a4:	78 7b       	andi	r23, 0xB8	; 184
    15a6:	7e 81       	ldd	r23, Y+6	; 0x06
    15a8:	82 83       	std	Z+2, r24	; 0x02
    15aa:	84 85       	ldd	r24, Z+12	; 0x0c
    15ac:	85 84       	ldd	r8, Z+13	; 0x0d
    15ae:	84 84       	ldd	r8, Z+12	; 0x0c
    15b0:	83 83       	std	Z+3, r24	; 0x03
    15b2:	83 83       	std	Z+3, r24	; 0x03
    15b4:	83 83       	std	Z+3, r24	; 0x03
    15b6:	87 87       	std	Z+15, r24	; 0x0f
    15b8:	89 8a       	std	Y+17, r8	; 0x11
    15ba:	8e 90       	ld	r8, -X
    15bc:	92 95       	swap	r25
    15be:	97 9c       	mul	r9, r7
    15c0:	9f 9a       	sbi	0x13, 7	; 19
    15c2:	8d 87       	std	Y+13, r24	; 0x0d
    15c4:	7e 72       	andi	r23, 0x2E	; 46
    15c6:	6d 68       	ori	r22, 0x8D	; 141
    15c8:	5e 57       	subi	r21, 0x7E	; 126
    15ca:	59 5c       	subi	r21, 0xC9	; 201
    15cc:	5c 65       	ori	r21, 0x5C	; 92
    15ce:	6c 71       	andi	r22, 0x1C	; 28
    15d0:	78 85       	ldd	r23, Y+8	; 0x08
    15d2:	8b 8f       	std	Y+27, r24	; 0x1b
    15d4:	96 99       	sbic	0x12, 6	; 18
    15d6:	97 97       	sbiw	r26, 0x27	; 39
    15d8:	97 93       	lat	Z, r25
    15da:	90 8e       	std	Z+24, r9	; 0x18
    15dc:	8b 85       	ldd	r24, Y+11	; 0x0b
    15de:	82 81       	ldd	r24, Z+2	; 0x02
    15e0:	7d 7b       	andi	r23, 0xBD	; 189
    15e2:	78 77       	andi	r23, 0x78	; 120
    15e4:	74 71       	andi	r23, 0x14	; 20
    15e6:	70 72       	andi	r23, 0x20	; 32
    15e8:	72 72       	andi	r23, 0x22	; 34
    15ea:	73 74       	andi	r23, 0x43	; 67
    15ec:	76 77       	andi	r23, 0x76	; 118
    15ee:	7a 7c       	andi	r23, 0xCA	; 202
    15f0:	7e 80       	ldd	r7, Y+6	; 0x06
    15f2:	81 81       	ldd	r24, Z+1	; 0x01
    15f4:	81 82       	std	Z+1, r8	; 0x01
    15f6:	82 82       	std	Z+2, r8	; 0x02
    15f8:	80 81       	ld	r24, Z
    15fa:	82 81       	ldd	r24, Z+2	; 0x02
    15fc:	80 83       	st	Z, r24
    15fe:	84 85       	ldd	r24, Z+12	; 0x0c
    1600:	87 8a       	std	Z+23, r8	; 0x17
    1602:	8c 8f       	std	Y+28, r24	; 0x1c
    1604:	91 93       	st	Z+, r25
    1606:	97 97       	sbiw	r26, 0x27	; 39
    1608:	99 9d       	mul	r25, r9
    160a:	a0 9a       	sbi	0x14, 0	; 20
    160c:	8e 85       	ldd	r24, Y+14	; 0x0e
    160e:	7e 74       	andi	r23, 0x4E	; 78
    1610:	6b 66       	ori	r22, 0x6B	; 107
    1612:	5d 53       	subi	r21, 0x3D	; 61
    1614:	56 5a       	subi	r21, 0xA6	; 166
    1616:	5a 64       	ori	r21, 0x4A	; 74
    1618:	6f 72       	andi	r22, 0x2F	; 47
    161a:	79 85       	ldd	r23, Y+9	; 0x09
    161c:	8a 8f       	std	Y+26, r24	; 0x1a
    161e:	98 9d       	mul	r25, r8
    1620:	99 97       	sbiw	r26, 0x29	; 41
    1622:	98 94       	clz
    1624:	91 90       	ld	r9, Z+
    1626:	8b 84       	ldd	r8, Y+11	; 0x0b
    1628:	81 80       	ldd	r8, Z+1	; 0x01
    162a:	7a 77       	andi	r23, 0x7A	; 122
    162c:	7a 77       	andi	r23, 0x7A	; 122
    162e:	73 72       	andi	r23, 0x23	; 35
    1630:	73 71       	andi	r23, 0x13	; 19
    1632:	73 73       	andi	r23, 0x33	; 51
    1634:	72 73       	andi	r23, 0x32	; 50
    1636:	76 77       	andi	r23, 0x76	; 118
    1638:	78 7b       	andi	r23, 0xB8	; 184
    163a:	7c 7f       	andi	r23, 0xFC	; 252
    163c:	7f 80       	ldd	r7, Y+7	; 0x07
    163e:	81 81       	ldd	r24, Z+1	; 0x01
    1640:	82 81       	ldd	r24, Z+2	; 0x02
    1642:	80 80       	ld	r8, Z
    1644:	80 81       	ld	r24, Z
    1646:	83 82       	std	Z+3, r8	; 0x03
    1648:	84 87       	std	Z+12, r24	; 0x0c
    164a:	89 8b       	std	Y+17, r24	; 0x11
    164c:	8e 91       	ld	r24, -X
    164e:	95 97       	sbiw	r26, 0x25	; 37
    1650:	99 9a       	sbi	0x13, 1	; 19
    1652:	9c a0       	ldd	r9, Y+36	; 0x24
    1654:	a3 9a       	sbi	0x14, 3	; 20
    1656:	8a 81       	ldd	r24, Y+2	; 0x02
    1658:	7b 71       	andi	r23, 0x1B	; 27
    165a:	69 66       	ori	r22, 0x69	; 105
    165c:	58 4e       	sbci	r21, 0xE8	; 232
    165e:	53 56       	subi	r21, 0x63	; 99
    1660:	59 62       	ori	r21, 0x29	; 41
    1662:	6f 70       	andi	r22, 0x0F	; 15
    1664:	79 86       	std	Y+9, r7	; 0x09
    1666:	8b 92       	.word	0x928b	; ????
    1668:	9d 9e       	mul	r9, r29
    166a:	9c 9b       	sbis	0x13, 4	; 19
    166c:	9a 94       	dec	r9
    166e:	93 91       	.word	0x9193	; ????
    1670:	8a 85       	ldd	r24, Y+10	; 0x0a
    1672:	81 7b       	andi	r24, 0xB1	; 177
    1674:	76 77       	andi	r23, 0x76	; 118
    1676:	76 74       	andi	r23, 0x46	; 70
    1678:	73 6f       	ori	r23, 0xF3	; 243
    167a:	6f 6f       	ori	r22, 0xFF	; 255
    167c:	73 73       	andi	r23, 0x33	; 51
    167e:	73 74       	andi	r23, 0x43	; 67
    1680:	75 77       	andi	r23, 0x75	; 117
    1682:	78 7c       	andi	r23, 0xC8	; 200
    1684:	7d 7f       	andi	r23, 0xFD	; 253
    1686:	80 81       	ld	r24, Z
    1688:	81 82       	std	Z+1, r8	; 0x01
    168a:	81 81       	ldd	r24, Z+1	; 0x01
    168c:	81 80       	ldd	r8, Z+1	; 0x01
    168e:	7f 80       	ldd	r7, Y+7	; 0x07
    1690:	82 84       	ldd	r8, Z+10	; 0x0a
    1692:	86 88       	ldd	r8, Z+22	; 0x16
    1694:	8b 8e       	std	Y+27, r8	; 0x1b
    1696:	91 91       	ld	r25, Z+
    1698:	97 99       	sbic	0x12, 7	; 18
    169a:	9c 9d       	mul	r25, r12
    169c:	a0 a8       	ldd	r10, Z+48	; 0x30
    169e:	a0 95       	com	r26
    16a0:	84 82       	std	Z+4, r8	; 0x04
    16a2:	75 6c       	ori	r23, 0xC5	; 197
    16a4:	69 5d       	subi	r22, 0xD9	; 217
    16a6:	4a 48       	sbci	r20, 0x8A	; 138
    16a8:	4f 50       	subi	r20, 0x0F	; 15
    16aa:	5c 68       	ori	r21, 0x8C	; 140
    16ac:	6f 71       	andi	r22, 0x1F	; 31
    16ae:	7f 88       	ldd	r7, Y+23	; 0x17
    16b0:	8d 9c       	mul	r8, r13
    16b2:	a9 a2       	std	Y+33, r10	; 0x21
    16b4:	9e 9f       	mul	r25, r30
    16b6:	98 92       	.word	0x9298	; ????
    16b8:	93 94       	inc	r9
    16ba:	88 82       	st	Y, r8
    16bc:	7e 75       	andi	r23, 0x5E	; 94
    16be:	74 76       	andi	r23, 0x64	; 100
    16c0:	75 71       	andi	r23, 0x15	; 21
    16c2:	6f 6c       	ori	r22, 0xCF	; 207
    16c4:	69 6b       	ori	r22, 0xB9	; 185
    16c6:	72 71       	andi	r23, 0x12	; 18
    16c8:	73 76       	andi	r23, 0x63	; 99
    16ca:	75 75       	andi	r23, 0x55	; 85
    16cc:	7a 81       	ldd	r23, Y+2	; 0x02
    16ce:	82 83       	std	Z+2, r24	; 0x02
    16d0:	85 81       	ldd	r24, Z+5	; 0x05
    16d2:	80 82       	st	Z, r8
    16d4:	83 80       	ldd	r8, Z+3	; 0x03
    16d6:	82 82       	std	Z+2, r8	; 0x02
    16d8:	7f 7f       	andi	r23, 0xFF	; 255
    16da:	83 85       	ldd	r24, Z+11	; 0x0b
    16dc:	88 8c       	ldd	r8, Y+24	; 0x18
    16de:	91 92       	st	Z+, r9
    16e0:	95 99       	sbic	0x12, 5	; 18
    16e2:	9d a0       	ldd	r9, Y+37	; 0x25
    16e4:	a7 aa       	std	Z+55, r10	; 0x37
    16e6:	b0 9c       	mul	r11, r0
    16e8:	87 80       	ldd	r8, Z+7	; 0x07
    16ea:	7e 71       	andi	r23, 0x1E	; 30
    16ec:	6d 6a       	ori	r22, 0xAD	; 173
    16ee:	55 43       	sbci	r21, 0x35	; 53
    16f0:	45 49       	sbci	r20, 0x95	; 149
    16f2:	4c 5f       	subi	r20, 0xFC	; 252
    16f4:	74 71       	andi	r23, 0x14	; 20
    16f6:	74 83       	std	Z+4, r23	; 0x04
    16f8:	88 8d       	ldd	r24, Y+24	; 0x18
    16fa:	a1 ab       	std	Z+49, r26	; 0x31
    16fc:	a6 a4       	ldd	r10, Z+46	; 0x2e
    16fe:	a2 97       	sbiw	r28, 0x22	; 34
    1700:	92 95       	swap	r25
    1702:	94 8a       	std	Z+20, r9	; 0x14
    1704:	85 7a       	andi	r24, 0xA5	; 165
    1706:	71 6a       	ori	r23, 0xA1	; 161
    1708:	6b 68       	ori	r22, 0x8B	; 139
    170a:	68 6b       	ori	r22, 0xB8	; 184
    170c:	63 61       	ori	r22, 0x13	; 19
    170e:	67 73       	andi	r22, 0x37	; 55
    1710:	7a 81       	ldd	r23, Y+2	; 0x02
    1712:	83 7f       	andi	r24, 0xF3	; 243
    1714:	7d 7f       	andi	r23, 0xFD	; 253
    1716:	81 7f       	andi	r24, 0xF1	; 241
    1718:	81 7f       	andi	r24, 0xF1	; 241
    171a:	7a 77       	andi	r23, 0x7A	; 122
    171c:	7a 7c       	andi	r23, 0xCA	; 202
    171e:	7e 84       	ldd	r7, Y+14	; 0x0e
    1720:	84 84       	ldd	r8, Z+12	; 0x0c
    1722:	85 89       	ldd	r24, Z+21	; 0x15
    1724:	8f 96       	adiw	r24, 0x2f	; 47
    1726:	9c a2       	std	Y+36, r9	; 0x24
    1728:	a8 b2       	in	r10, 0x18	; 24
    172a:	b6 c1       	rjmp	.+876    	; 0x1a98 <__stack+0x1599>
    172c:	d5 d0       	rcall	.+426    	; 0x18d8 <__stack+0x13d9>
    172e:	84 4b       	sbci	r24, 0xB4	; 180
    1730:	12 13       	cpse	r17, r18
    1732:	23 45       	sbci	r18, 0x53	; 83
    1734:	61 5c       	subi	r22, 0xC1	; 193
    1736:	5c 74       	andi	r21, 0x4C	; 76
    1738:	9a ad       	ldd	r25, Y+58	; 0x3a
    173a:	c5 af       	std	Z+61, r28	; 0x3d
    173c:	83 64       	ori	r24, 0x43	; 67
    173e:	5d 62       	ori	r21, 0x2D	; 45
    1740:	86 8f       	std	Z+30, r24	; 0x1e
    1742:	97 94       	ror	r9
    1744:	81 97       	sbiw	r24, 0x21	; 33
    1746:	98 9a       	sbi	0x13, 0	; 19
    1748:	88 70       	andi	r24, 0x08	; 8
    174a:	59 5c       	subi	r21, 0xC9	; 201
    174c:	6d 86       	std	Y+13, r6	; 0x0d
    174e:	99 96       	adiw	r26, 0x29	; 41
    1750:	95 83       	std	Z+5, r25	; 0x05
    1752:	79 71       	andi	r23, 0x19	; 25
    1754:	6d 60       	ori	r22, 0x0D	; 13
    1756:	59 4c       	sbci	r21, 0xC9	; 201
    1758:	4f 63       	ori	r20, 0x3F	; 63
    175a:	75 88       	ldd	r7, Z+21	; 0x15
    175c:	8e 93       	st	-X, r24
    175e:	95 95       	asr	r25
    1760:	95 93       	las	Z, r25
    1762:	87 7d       	andi	r24, 0xD7	; 215
    1764:	7b 70       	andi	r23, 0x0B	; 11
    1766:	72 78       	andi	r23, 0x82	; 130
    1768:	7b 7d       	andi	r23, 0xDB	; 219
    176a:	83 86       	std	Z+11, r8	; 0x0b
    176c:	8b 98       	cbi	0x11, 3	; 17
    176e:	a8 b3       	in	r26, 0x18	; 24
    1770:	bc c4       	rjmp	.+2424   	; 0x20ea <__stack+0x1beb>
    1772:	d2 eb       	ldi	r29, 0xB2	; 178
    1774:	d4 7a       	andi	r29, 0xA4	; 164
    1776:	15 01       	movw	r2, r10
    1778:	03 2e       	mov	r0, r19
    177a:	6a 8d       	ldd	r22, Y+26	; 0x1a
    177c:	76 6f       	ori	r23, 0xF6	; 246
    177e:	8a 95       	dec	r24
    1780:	ab aa       	std	Y+51, r10	; 0x33
    1782:	85 5a       	subi	r24, 0xA5	; 165
    1784:	50 60       	ori	r21, 0x00	; 0
    1786:	7d b0       	in	r7, 0x0d	; 13
    1788:	ad a8       	ldd	r10, Y+53	; 0x35
    178a:	9d 8c       	ldd	r9, Y+29	; 0x1d
    178c:	8c 8c       	ldd	r8, Y+28	; 0x1c
    178e:	70 58       	subi	r23, 0x80	; 128
    1790:	4d 40       	sbci	r20, 0x0D	; 13
    1792:	61 7f       	andi	r22, 0xF1	; 241
    1794:	99 a2       	std	Y+33, r9	; 0x21
    1796:	a3 92       	.word	0x92a3	; ????
    1798:	8b 81       	ldd	r24, Y+3	; 0x03
    179a:	70 6d       	ori	r23, 0xD0	; 208
    179c:	62 62       	ori	r22, 0x22	; 34
    179e:	5a 64       	ori	r21, 0x4A	; 74
    17a0:	70 79       	andi	r23, 0x90	; 144
    17a2:	7e 89       	ldd	r23, Y+22	; 0x16
    17a4:	87 8f       	std	Z+31, r24	; 0x1f
    17a6:	95 90       	lpm	r9, Z+
    17a8:	89 7e       	andi	r24, 0xE9	; 233
    17aa:	77 71       	andi	r23, 0x17	; 23
    17ac:	76 7d       	andi	r23, 0xD6	; 214
    17ae:	85 8a       	std	Z+21, r8	; 0x15
    17b0:	90 99       	sbic	0x12, 0	; 18
    17b2:	97 a3       	std	Z+39, r25	; 0x27
    17b4:	ab b4       	in	r10, 0x2b	; 43
    17b6:	b6 c1       	rjmp	.+876    	; 0x1b24 <__stack+0x1625>
    17b8:	db 9e       	mul	r13, r27
    17ba:	6f 19       	sub	r22, r15
    17bc:	01 21       	and	r16, r1
    17be:	46 83       	std	Z+6, r20	; 0x06
    17c0:	9d 8e       	std	Y+29, r9	; 0x1d
    17c2:	7c 83       	std	Y+4, r23	; 0x04
    17c4:	8a 97       	sbiw	r24, 0x2a	; 42
    17c6:	96 76       	andi	r25, 0x66	; 102
    17c8:	53 51       	subi	r21, 0x13	; 19
    17ca:	60 82       	st	Z, r6
    17cc:	b8 bb       	out	0x18, r27	; 24
    17ce:	a9 9a       	sbi	0x15, 1	; 21
    17d0:	84 7f       	andi	r24, 0xF4	; 244
    17d2:	84 73       	andi	r24, 0x34	; 52
    17d4:	5d 4e       	sbci	r21, 0xED	; 237
    17d6:	4f 61       	ori	r20, 0x1F	; 31
    17d8:	84 9d       	mul	r24, r4
    17da:	a4 9c       	mul	r10, r4
    17dc:	80 75       	andi	r24, 0x50	; 80
    17de:	6b 6f       	ori	r22, 0xFB	; 251
    17e0:	72 6f       	ori	r23, 0xF2	; 242
    17e2:	6c 66       	ori	r22, 0x6C	; 108
    17e4:	6b 7a       	andi	r22, 0xAB	; 171
    17e6:	85 83       	std	Z+5, r24	; 0x05
    17e8:	83 7f       	andi	r24, 0xF3	; 243
    17ea:	86 8f       	std	Z+30, r24	; 0x1e
    17ec:	92 93       	st	-Z, r25
    17ee:	87 7e       	andi	r24, 0xE7	; 231
    17f0:	71 75       	andi	r23, 0x51	; 81
    17f2:	7f 90       	pop	r7
    17f4:	93 9c       	mul	r9, r3
    17f6:	a1 a6       	std	Z+41, r10	; 0x29
    17f8:	b0 be       	out	0x30, r11	; 48
    17fa:	cd e5       	ldi	r28, 0x5D	; 93
    17fc:	b5 68       	ori	r27, 0x85	; 133
    17fe:	1b 02       	muls	r17, r27
    1800:	0c 50       	subi	r16, 0x0C	; 12
    1802:	84 a0       	ldd	r8, Z+36	; 0x24
    1804:	94 73       	andi	r25, 0x34	; 52
    1806:	81 89       	ldd	r24, Z+17	; 0x11
    1808:	93 98       	cbi	0x12, 3	; 18
    180a:	73 48       	sbci	r23, 0x83	; 131
    180c:	45 58       	subi	r20, 0x85	; 133
    180e:	86 be       	out	0x36, r8	; 54
    1810:	c7 be       	out	0x37, r12	; 55
    1812:	9d 84       	ldd	r9, Y+13	; 0x0d
    1814:	7c 7c       	andi	r23, 0xCC	; 204
    1816:	70 65       	ori	r23, 0x50	; 80
    1818:	55 47       	sbci	r21, 0x75	; 117
    181a:	5d 84       	ldd	r5, Y+13	; 0x0d
    181c:	a4 ad       	ldd	r26, Z+60	; 0x3c
    181e:	a0 82       	st	Z, r10
    1820:	70 66       	ori	r23, 0x60	; 96
    1822:	69 6f       	ori	r22, 0xF9	; 249
    1824:	6f 6f       	ori	r22, 0xFF	; 255
    1826:	65 66       	ori	r22, 0x65	; 101
    1828:	75 81       	ldd	r23, Z+5	; 0x05
    182a:	8d 90       	ld	r8, X+
    182c:	86 82       	std	Z+6, r8	; 0x06
    182e:	82 86       	std	Z+10, r8	; 0x0a
    1830:	91 93       	st	Z+, r25
    1832:	8a 7e       	andi	r24, 0xEA	; 234
    1834:	74 76       	andi	r23, 0x64	; 100
    1836:	82 8f       	std	Z+26, r24	; 0x1a
    1838:	97 9e       	mul	r9, r23
    183a:	9f a7       	std	Y+47, r25	; 0x2f
    183c:	b6 be       	out	0x36, r11	; 54
    183e:	d5 c9       	rjmp	.-3158   	; 0xbea <__stack+0x6eb>
    1840:	7f 37       	cpi	r23, 0x7F	; 127
    1842:	06 09       	sbc	r16, r6
    1844:	47 87       	std	Z+15, r20	; 0x0f
    1846:	98 9b       	sbis	0x13, 0	; 19
    1848:	80 7b       	andi	r24, 0xB0	; 176
    184a:	7e 88       	ldd	r7, Y+22	; 0x16
    184c:	8e 75       	andi	r24, 0x5E	; 94
    184e:	5b 46       	sbci	r21, 0x6B	; 107
    1850:	53 7d       	andi	r21, 0xD3	; 211
    1852:	a1 c5       	rjmp	.+2882   	; 0x2396 <__stack+0x1e97>
    1854:	c5 a9       	ldd	r28, Z+53	; 0x35
    1856:	94 80       	ldd	r9, Z+4	; 0x04
    1858:	77 6e       	ori	r23, 0xE7	; 231
    185a:	63 51       	subi	r22, 0x13	; 19
    185c:	48 61       	ori	r20, 0x18	; 24
    185e:	75 99       	sbic	0x0e, 5	; 14
    1860:	a7 9f       	mul	r26, r23
    1862:	93 7e       	andi	r25, 0xE3	; 227
    1864:	6b 6b       	ori	r22, 0xBB	; 187
    1866:	6c 6e       	ori	r22, 0xEC	; 236
    1868:	70 6c       	ori	r23, 0xC0	; 192
    186a:	69 6e       	ori	r22, 0xE9	; 233
    186c:	78 85       	ldd	r23, Y+8	; 0x08
    186e:	8c 88       	ldd	r8, Y+20	; 0x14
    1870:	86 84       	ldd	r8, Z+14	; 0x0e
    1872:	86 8d       	ldd	r24, Z+30	; 0x1e
    1874:	90 8c       	ldd	r9, Z+24	; 0x18
    1876:	85 7d       	andi	r24, 0xD5	; 213
    1878:	7a 87       	std	Y+10, r23	; 0x0a
    187a:	8e 95 98 98 	call	0x613130	; 0x613130 <_etext+0x610066>
    187e:	a0 a9       	ldd	r26, Z+48	; 0x30
    1880:	b3 c6       	rjmp	.+3430   	; 0x25e8 <__stack+0x20e9>
    1882:	d4 86       	std	Z+12, r13	; 0x0c
    1884:	59 2e       	mov	r5, r25
    1886:	09 33       	cpi	r16, 0x39	; 57
    1888:	74 81       	ldd	r23, Z+4	; 0x04
    188a:	a6 90       	elpm	r10, Z
    188c:	76 7e       	andi	r23, 0xE6	; 230
    188e:	80 83       	st	Z, r24
    1890:	8b 67       	ori	r24, 0x7B	; 123
    1892:	4f 52       	subi	r20, 0x2F	; 47
    1894:	5c 8c       	ldd	r5, Y+28	; 0x1c
    1896:	b3 c4       	rjmp	.+2406   	; 0x21fe <__stack+0x1cff>
    1898:	bb a1       	ldd	r27, Y+35	; 0x23
    189a:	85 7a       	andi	r24, 0xA5	; 165
    189c:	71 6e       	ori	r23, 0xE1	; 225
    189e:	61 57       	subi	r22, 0x71	; 113
    18a0:	56 69       	ori	r21, 0x96	; 150
    18a2:	83 9f       	mul	r24, r19
    18a4:	a5 9a       	sbi	0x14, 5	; 20
    18a6:	85 70       	andi	r24, 0x05	; 5
    18a8:	66 6a       	ori	r22, 0xA6	; 166
    18aa:	74 78       	andi	r23, 0x84	; 132
    18ac:	74 6d       	ori	r23, 0xD4	; 212
    18ae:	6a 74       	andi	r22, 0x4A	; 74
    18b0:	7f 88       	ldd	r7, Y+23	; 0x17
    18b2:	87 85       	ldd	r24, Z+15	; 0x0f
    18b4:	7e 80       	ldd	r7, Y+6	; 0x06
    18b6:	88 8c       	ldd	r8, Y+24	; 0x18
    18b8:	8e 86       	std	Y+14, r8	; 0x0e
    18ba:	7a 77       	andi	r23, 0x7A	; 122
    18bc:	80 82       	st	Z, r8
    18be:	90 93 91 95 	sts	0x9591, r25
    18c2:	99 9f       	mul	r25, r25
    18c4:	a8 ac       	ldd	r10, Y+56	; 0x38
    18c6:	b6 d0       	rcall	.+364    	; 0x1a34 <__stack+0x1535>
    18c8:	9d 9d       	mul	r25, r13
    18ca:	38 09       	sbc	r19, r8
    18cc:	26 29       	or	r18, r6
    18ce:	6b 9f       	mul	r22, r27
    18d0:	8c 8d       	ldd	r24, Y+28	; 0x1c
    18d2:	8b 73       	andi	r24, 0x3B	; 59
    18d4:	83 81       	ldd	r24, Z+3	; 0x03
    18d6:	74 67       	ori	r23, 0x74	; 116
    18d8:	62 63       	ori	r22, 0x32	; 50
    18da:	7e 9d       	mul	r23, r14
    18dc:	b2 b7       	in	r27, 0x32	; 50
    18de:	a7 96       	adiw	r28, 0x27	; 39
    18e0:	86 7f       	andi	r24, 0xF6	; 246
    18e2:	6c 60       	ori	r22, 0x0C	; 12
    18e4:	4e 4b       	sbci	r20, 0xBE	; 190
    18e6:	5a 77       	andi	r21, 0x7A	; 122
    18e8:	97 a5       	ldd	r25, Z+47	; 0x2f
    18ea:	a1 93       	st	Z+, r26
    18ec:	81 75       	andi	r24, 0x51	; 81
    18ee:	73 77       	andi	r23, 0x73	; 115
    18f0:	73 72       	andi	r23, 0x23	; 35
    18f2:	6c 70       	andi	r22, 0x0C	; 12
    18f4:	76 79       	andi	r23, 0x96	; 150
    18f6:	7a 7c       	andi	r23, 0xCA	; 202
    18f8:	7b 82       	std	Y+3, r7	; 0x03
    18fa:	88 8a       	std	Y+16, r8	; 0x10
    18fc:	8d 86       	std	Y+13, r8	; 0x0d
    18fe:	7e 79       	andi	r23, 0x9E	; 158
    1900:	76 7a       	andi	r23, 0xA6	; 166
    1902:	81 85       	ldd	r24, Z+9	; 0x09
    1904:	8b 8f       	std	Y+27, r24	; 0x1b
    1906:	92 91       	ld	r25, -Z
    1908:	95 95       	asr	r25
    190a:	95 98       	cbi	0x12, 5	; 18
    190c:	a2 ad       	ldd	r26, Z+58	; 0x3a
    190e:	bc cb       	rjmp	.-2184   	; 0x1088 <__stack+0xb89>
    1910:	9f 89       	ldd	r25, Y+23	; 0x17
    1912:	4d 1a       	sub	r4, r29
    1914:	27 46       	sbci	r18, 0x67	; 103
    1916:	61 92       	st	Z+, r6
    1918:	7d 75       	andi	r23, 0x5D	; 93
    191a:	7c 6c       	ori	r23, 0xCC	; 204
    191c:	87 91       	elpm	r24, Z+
    191e:	7f 81       	ldd	r23, Y+7	; 0x07
    1920:	74 6b       	ori	r23, 0xB4	; 180
    1922:	84 89       	ldd	r24, Z+20	; 0x14
    1924:	9d a9       	ldd	r25, Y+53	; 0x35
    1926:	a1 9d       	mul	r26, r1
    1928:	89 72       	andi	r24, 0x29	; 41
    192a:	63 58       	subi	r22, 0x83	; 131
    192c:	4d 53       	subi	r20, 0x3D	; 61
    192e:	69 7c       	andi	r22, 0xC9	; 201
    1930:	94 9d       	mul	r25, r4
    1932:	9e 91       	ld	r25, -X
    1934:	8b 7f       	andi	r24, 0xFB	; 251
    1936:	79 78       	andi	r23, 0x89	; 137
    1938:	79 7a       	andi	r23, 0xA9	; 169
    193a:	75 6c       	ori	r23, 0xC5	; 197
    193c:	69 69       	ori	r22, 0x99	; 153
    193e:	72 81       	ldd	r23, Z+2	; 0x02
    1940:	88 8c       	ldd	r8, Y+24	; 0x18
    1942:	89 84       	ldd	r8, Y+9	; 0x09
    1944:	7f 79       	andi	r23, 0x9F	; 159
    1946:	78 78       	andi	r23, 0x88	; 136
    1948:	7c 83       	std	Y+4, r23	; 0x04
    194a:	8a 8a       	std	Y+18, r8	; 0x12
    194c:	8f 8b       	std	Y+23, r24	; 0x17
    194e:	8f 8e       	std	Y+31, r8	; 0x1f
    1950:	8e 8c       	ldd	r8, Y+30	; 0x1e
    1952:	8c 8a       	std	Y+20, r8	; 0x14
    1954:	8a 88       	ldd	r8, Y+18	; 0x12
    1956:	95 9b       	sbis	0x12, 5	; 18
    1958:	a4 aa       	std	Z+52, r10	; 0x34
    195a:	b3 8d       	ldd	r27, Z+27	; 0x1b
    195c:	78 67       	ori	r23, 0x78	; 120
    195e:	45 45       	sbci	r20, 0x55	; 85
    1960:	5b 52       	subi	r21, 0x2B	; 43
    1962:	7a 7f       	andi	r23, 0xFA	; 250
    1964:	7e 86       	std	Y+14, r7	; 0x0e
    1966:	88 83       	st	Y, r24
    1968:	8b 7d       	andi	r24, 0xDB	; 219
    196a:	79 75       	andi	r23, 0x59	; 89
    196c:	7b 85       	ldd	r23, Y+11	; 0x0b
    196e:	8c 93       	st	X, r24
    1970:	91 88       	ldd	r9, Z+17	; 0x11
    1972:	7f 75       	andi	r23, 0x5F	; 95
    1974:	63 6a       	ori	r22, 0xA3	; 163
    1976:	69 70       	andi	r22, 0x09	; 9
    1978:	76 7c       	andi	r23, 0xC6	; 198
    197a:	7f 89       	ldd	r23, Y+23	; 0x17
    197c:	8c 92       	st	X, r8
    197e:	8d 88       	ldd	r8, Y+21	; 0x15
    1980:	82 80       	ldd	r8, Z+2	; 0x02
    1982:	7c 7b       	andi	r23, 0xBC	; 188
    1984:	76 77       	andi	r23, 0x76	; 118
    1986:	75 7c       	andi	r23, 0xC5	; 197
    1988:	7e 7a       	andi	r23, 0xAE	; 174
    198a:	77 73       	andi	r23, 0x37	; 55
    198c:	73 7a       	andi	r23, 0xA3	; 163
    198e:	7e 84       	ldd	r7, Y+14	; 0x0e
    1990:	8b 89       	ldd	r24, Y+19	; 0x13
    1992:	8b 8e       	std	Y+27, r8	; 0x1b
    1994:	8c 89       	ldd	r24, Y+20	; 0x14
    1996:	87 82       	std	Z+7, r8	; 0x07
    1998:	81 7f       	andi	r24, 0xF1	; 241
    199a:	81 80       	ldd	r8, Z+1	; 0x01
    199c:	7d 7e       	andi	r23, 0xED	; 237
    199e:	7f 84       	ldd	r7, Y+15	; 0x0f
    19a0:	8b 87       	std	Y+11, r24	; 0x0b
    19a2:	8a 8a       	std	Y+18, r8	; 0x12
    19a4:	8d 8d       	ldd	r24, Y+29	; 0x1d
    19a6:	92 93       	st	-Z, r25
    19a8:	90 99       	sbic	0x12, 0	; 18
    19aa:	8e 8b       	std	Y+22, r24	; 0x16
    19ac:	7e 67       	ori	r23, 0x7E	; 126
    19ae:	6e 6b       	ori	r22, 0xBE	; 190
    19b0:	6d 7b       	andi	r22, 0xBD	; 189
    19b2:	77 72       	andi	r23, 0x27	; 39
    19b4:	7e 82       	std	Y+6, r7	; 0x06
    19b6:	81 85       	ldd	r24, Z+9	; 0x09
    19b8:	80 81       	ld	r24, Z
    19ba:	7f 81       	ldd	r23, Y+7	; 0x07
    19bc:	7a 78       	andi	r23, 0x8A	; 138
    19be:	75 78       	andi	r23, 0x85	; 133
    19c0:	71 73       	andi	r23, 0x31	; 49
    19c2:	70 73       	andi	r23, 0x30	; 48
    19c4:	79 7f       	andi	r23, 0xF9	; 249
    19c6:	83 84       	ldd	r8, Z+11	; 0x0b
    19c8:	83 83       	std	Z+3, r24	; 0x03
    19ca:	80 82       	st	Z, r8
    19cc:	85 84       	ldd	r8, Z+13	; 0x0d
    19ce:	84 86       	std	Z+12, r8	; 0x0c
    19d0:	82 83       	std	Z+2, r24	; 0x02
    19d2:	82 82       	std	Z+2, r8	; 0x02
    19d4:	80 7e       	andi	r24, 0xE0	; 224
    19d6:	7c 79       	andi	r23, 0x9C	; 156
    19d8:	77 79       	andi	r23, 0x97	; 151
    19da:	7f 82       	std	Y+7, r7	; 0x07
    19dc:	85 8b       	std	Z+21, r24	; 0x15
    19de:	8c 8b       	std	Y+20, r24	; 0x14
    19e0:	8b 89       	ldd	r24, Y+19	; 0x13
    19e2:	81 7e       	andi	r24, 0xE1	; 225
    19e4:	7c 79       	andi	r23, 0x9C	; 156
    19e6:	78 78       	andi	r23, 0x88	; 136
    19e8:	79 7a       	andi	r23, 0xA9	; 169
    19ea:	7c 7f       	andi	r23, 0xFC	; 252
    19ec:	82 7f       	andi	r24, 0xF2	; 242
    19ee:	88 88       	ldd	r8, Y+16	; 0x10
    19f0:	89 85       	ldd	r24, Y+9	; 0x09
    19f2:	87 87       	std	Z+15, r24	; 0x0f
    19f4:	82 7e       	andi	r24, 0xE2	; 226
    19f6:	83 84       	ldd	r8, Z+11	; 0x0b
    19f8:	86 89       	ldd	r24, Z+22	; 0x16
    19fa:	8a 87       	std	Y+10, r24	; 0x0a
    19fc:	85 88       	ldd	r8, Z+21	; 0x15
    19fe:	83 85       	ldd	r24, Z+11	; 0x0b
    1a00:	89 7f       	andi	r24, 0xF9	; 249
    1a02:	7f 80       	ldd	r7, Y+7	; 0x07
    1a04:	7e 7e       	andi	r23, 0xEE	; 238
    1a06:	7a 7b       	andi	r23, 0xBA	; 186
    1a08:	79 7a       	andi	r23, 0xA9	; 169
    1a0a:	76 76       	andi	r23, 0x66	; 102
    1a0c:	74 7a       	andi	r23, 0xA4	; 164
    1a0e:	78 79       	andi	r23, 0x98	; 152
    1a10:	7c 7d       	andi	r23, 0xDC	; 220
    1a12:	7b 7c       	andi	r23, 0xCB	; 203
    1a14:	7a 7f       	andi	r23, 0xFA	; 250
    1a16:	7c 80       	ldd	r7, Y+4	; 0x04
    1a18:	85 82       	std	Z+5, r8	; 0x05
    1a1a:	83 84       	ldd	r8, Z+11	; 0x0b
    1a1c:	85 7d       	andi	r24, 0xD5	; 213
    1a1e:	7b 7b       	andi	r23, 0xBB	; 187
    1a20:	7a 86       	std	Y+10, r7	; 0x0a
    1a22:	7f 7f       	andi	r23, 0xFF	; 255
    1a24:	84 7f       	andi	r24, 0xF4	; 244
    1a26:	83 81       	ldd	r24, Z+3	; 0x03
    1a28:	81 82       	std	Z+1, r8	; 0x01
    1a2a:	7d 7c       	andi	r23, 0xCD	; 205
    1a2c:	77 83       	std	Z+7, r23	; 0x07
    1a2e:	77 82       	std	Z+7, r7	; 0x07
    1a30:	74 75       	andi	r23, 0x54	; 84
    1a32:	86 87       	std	Z+14, r24	; 0x0e
    1a34:	80 88       	ldd	r8, Z+16	; 0x10
    1a36:	80 89       	ldd	r24, Z+16	; 0x10
    1a38:	7c 7b       	andi	r23, 0xBC	; 188
    1a3a:	8c 8d       	ldd	r24, Y+28	; 0x1c
    1a3c:	7e 79       	andi	r23, 0x9E	; 158
    1a3e:	7f 87       	std	Y+15, r23	; 0x0f
    1a40:	74 81       	ldd	r23, Z+4	; 0x04
    1a42:	84 8b       	std	Z+20, r24	; 0x14
    1a44:	86 7e       	andi	r24, 0xE6	; 230
    1a46:	7e 85       	ldd	r23, Y+14	; 0x0e
    1a48:	80 7e       	andi	r24, 0xE0	; 224
    1a4a:	6e 67       	ori	r22, 0x7E	; 126
    1a4c:	79 82       	std	Y+1, r7	; 0x01
    1a4e:	81 8a       	std	Z+17, r8	; 0x11
    1a50:	80 7d       	andi	r24, 0xD0	; 208
    1a52:	72 76       	andi	r23, 0x62	; 98
    1a54:	7d 85       	ldd	r23, Y+13	; 0x0d
    1a56:	7c 80       	ldd	r7, Y+4	; 0x04
    1a58:	7f 7d       	andi	r23, 0xDF	; 223
    1a5a:	87 7b       	andi	r24, 0xB7	; 183
    1a5c:	7d 7c       	andi	r23, 0xCD	; 205
    1a5e:	7d 8c       	ldd	r7, Y+29	; 0x1d
    1a60:	95 82       	std	Z+5, r9	; 0x05
    1a62:	7f 89       	ldd	r23, Y+23	; 0x17
    1a64:	8e 8c       	ldd	r8, Y+30	; 0x1e
    1a66:	90 75       	andi	r25, 0x50	; 80
    1a68:	6e 73       	andi	r22, 0x3E	; 62
    1a6a:	84 71       	andi	r24, 0x14	; 20
    1a6c:	84 84       	ldd	r8, Z+12	; 0x0c
    1a6e:	7e 80       	ldd	r7, Y+6	; 0x06
    1a70:	74 6f       	ori	r23, 0xF4	; 244
    1a72:	6c 7d       	andi	r22, 0xDC	; 220
    1a74:	83 81       	ldd	r24, Z+3	; 0x03
    1a76:	83 83       	std	Z+3, r24	; 0x03
    1a78:	81 88       	ldd	r8, Z+17	; 0x11
    1a7a:	8d 91       	ld	r24, X+
    1a7c:	5f 6f       	ori	r21, 0xFF	; 255
    1a7e:	8f 9f       	mul	r24, r31
    1a80:	69 7a       	andi	r22, 0xA9	; 169
    1a82:	7f 98       	cbi	0x0f, 7	; 15
    1a84:	72 7f       	andi	r23, 0xF2	; 242
    1a86:	70 6a       	ori	r23, 0xA0	; 160
    1a88:	9b 7b       	andi	r25, 0xBB	; 187
    1a8a:	70 8c       	ldd	r7, Z+24	; 0x18
    1a8c:	7f 8a       	std	Y+23, r7	; 0x17
    1a8e:	61 66       	ori	r22, 0x61	; 97
    1a90:	84 8f       	std	Z+28, r24	; 0x1c
    1a92:	8a 91       	ld	r24, -Y
    1a94:	65 98       	cbi	0x0c, 5	; 12
    1a96:	8c 74       	andi	r24, 0x4C	; 76
    1a98:	7d 94 94 85 	jmp	0x1f0b28	; 0x1f0b28 <_etext+0x1eda5e>
    1a9c:	8b 88       	ldd	r8, Y+19	; 0x13
    1a9e:	81 6f       	ori	r24, 0xF1	; 241
    1aa0:	94 6d       	ori	r25, 0xD4	; 212
    1aa2:	6d 7c       	andi	r22, 0xCD	; 205
    1aa4:	7f 89       	ldd	r23, Y+23	; 0x17
    1aa6:	8a 80       	ldd	r8, Y+2	; 0x02
    1aa8:	65 99       	sbic	0x0c, 5	; 12
    1aaa:	94 6d       	ori	r25, 0xD4	; 212
    1aac:	64 9a       	sbi	0x0c, 4	; 12
    1aae:	9b 86       	std	Y+11, r9	; 0x0b
    1ab0:	8f 75       	andi	r24, 0x5F	; 95
    1ab2:	77 75       	andi	r23, 0x57	; 87
    1ab4:	83 97       	sbiw	r24, 0x23	; 35
    1ab6:	75 47       	sbci	r23, 0x75	; 117
    1ab8:	5b a5       	ldd	r21, Y+43	; 0x2b
    1aba:	7c 86       	std	Y+12, r7	; 0x0c
    1abc:	99 6f       	ori	r25, 0xF9	; 249
    1abe:	7c 81       	ldd	r23, Y+4	; 0x04
    1ac0:	9d 6b       	ori	r25, 0xBD	; 189
    1ac2:	8d 9b       	sbis	0x11, 5	; 17
    1ac4:	8e 85       	ldd	r24, Y+14	; 0x0e
    1ac6:	6c 62       	ori	r22, 0x2C	; 44
    1ac8:	7a 6e       	ori	r23, 0xEA	; 234
    1aca:	97 9d       	mul	r25, r7
    1acc:	7c 6d       	ori	r23, 0xDC	; 220
    1ace:	8b 8a       	std	Y+19, r8	; 0x13
    1ad0:	7f 95 61 61 	call	0x5ec2c2	; 0x5ec2c2 <_etext+0x5e91f8>
    1ad4:	75 96       	adiw	r30, 0x15	; 21
    1ad6:	7e 90       	ld	r7, -X
    1ad8:	77 79       	andi	r23, 0x97	; 151
    1ada:	77 8d       	ldd	r23, Z+31	; 0x1f
    1adc:	72 54       	subi	r23, 0x42	; 66
    1ade:	a0 ae       	std	Z+56, r10	; 0x38
    1ae0:	85 80       	ldd	r8, Z+5	; 0x05
    1ae2:	6d 7e       	andi	r22, 0xED	; 237
    1ae4:	9c 8f       	std	Y+28, r25	; 0x1c
    1ae6:	7a 86       	std	Y+10, r7	; 0x0a
    1ae8:	7b 75       	andi	r23, 0x5B	; 91
    1aea:	7d 99       	sbic	0x0f, 5	; 15
    1aec:	b8 8a       	std	Y+16, r11	; 0x10
    1aee:	5e 90       	ld	r5, -X
    1af0:	a1 81       	ldd	r26, Z+1	; 0x01
    1af2:	70 8e       	std	Z+24, r7	; 0x18
    1af4:	9b 61       	ori	r25, 0x1B	; 27
    1af6:	5d 9e       	mul	r5, r29
    1af8:	8a 84       	ldd	r8, Y+10	; 0x0a
    1afa:	71 8b       	std	Z+17, r23	; 0x11
    1afc:	98 77       	andi	r25, 0x78	; 120
    1afe:	54 8c       	ldd	r5, Z+28	; 0x1c
    1b00:	77 8f       	std	Z+31, r23	; 0x1f
    1b02:	9e 70       	andi	r25, 0x0E	; 14
    1b04:	84 9a       	sbi	0x10, 4	; 16
    1b06:	94 64       	ori	r25, 0x44	; 68
    1b08:	60 6c       	ori	r22, 0xC0	; 192
    1b0a:	7e 90       	ld	r7, -X
    1b0c:	64 71       	andi	r22, 0x14	; 20
    1b0e:	91 67       	ori	r25, 0x71	; 113
    1b10:	7d 75       	andi	r23, 0x5D	; 93
    1b12:	80 95       	com	r24
    1b14:	66 7f       	andi	r22, 0xF6	; 246
    1b16:	9a 8a       	std	Y+18, r9	; 0x12
    1b18:	61 7a       	andi	r22, 0xA1	; 161
    1b1a:	98 97       	sbiw	r26, 0x28	; 40
    1b1c:	73 85       	ldd	r23, Z+11	; 0x0b
    1b1e:	81 7a       	andi	r24, 0xA1	; 161
    1b20:	95 86       	std	Z+13, r9	; 0x0d
    1b22:	86 80       	ldd	r8, Z+6	; 0x06
    1b24:	79 77       	andi	r23, 0x79	; 121
    1b26:	7f 8e       	std	Y+31, r7	; 0x1f
    1b28:	81 65       	ori	r24, 0x51	; 81
    1b2a:	71 9a       	sbi	0x0e, 1	; 14
    1b2c:	81 80       	ldd	r8, Z+1	; 0x01
    1b2e:	7f 74       	andi	r23, 0x4F	; 79
    1b30:	81 a4       	ldd	r8, Z+41	; 0x29
    1b32:	8e 69       	ori	r24, 0x9E	; 158
    1b34:	94 93       	xch	Z, r25
    1b36:	75 70       	andi	r23, 0x05	; 5
    1b38:	8c 6e       	ori	r24, 0xEC	; 236
    1b3a:	87 9c       	mul	r8, r7
    1b3c:	80 79       	andi	r24, 0x90	; 144
    1b3e:	80 7e       	andi	r24, 0xE0	; 224
    1b40:	a3 4c       	sbci	r26, 0xC3	; 195
    1b42:	66 9a       	sbi	0x0c, 6	; 12
    1b44:	92 80       	ldd	r9, Z+2	; 0x02
    1b46:	a0 96       	adiw	r28, 0x20	; 32
    1b48:	94 5b       	subi	r25, 0xB4	; 180
    1b4a:	77 84       	ldd	r7, Z+15	; 0x0f
    1b4c:	9e 61       	ori	r25, 0x1E	; 30
    1b4e:	69 73       	andi	r22, 0x39	; 57
    1b50:	91 77       	andi	r25, 0x71	; 113
    1b52:	6d 77       	andi	r22, 0x7D	; 125
    1b54:	6b 96       	adiw	r28, 0x1b	; 27
    1b56:	a6 8b       	std	Z+22, r26	; 0x16
    1b58:	74 7c       	andi	r23, 0xC4	; 196
    1b5a:	7e 7e       	andi	r23, 0xEE	; 238
    1b5c:	84 7d       	andi	r24, 0xD4	; 212
    1b5e:	63 81       	ldd	r22, Z+3	; 0x03
    1b60:	9a 73       	andi	r25, 0x3A	; 58
    1b62:	65 7b       	andi	r22, 0xB5	; 181
    1b64:	86 99       	sbic	0x10, 6	; 16
    1b66:	65 50       	subi	r22, 0x05	; 5
    1b68:	7f 91       	pop	r23
    1b6a:	70 67       	ori	r23, 0x70	; 112
    1b6c:	72 88       	ldd	r7, Z+18	; 0x12
    1b6e:	7e 6c       	ori	r23, 0xCE	; 206
    1b70:	7b 8b       	std	Y+19, r23	; 0x13
    1b72:	73 6b       	ori	r23, 0xB3	; 179
    1b74:	80 81       	ld	r24, Z
    1b76:	73 86       	std	Z+11, r7	; 0x0b
    1b78:	9a 89       	ldd	r25, Y+18	; 0x12
    1b7a:	7a 93       	st	-Y, r23
    1b7c:	98 8b       	std	Y+16, r25	; 0x10
    1b7e:	68 7c       	andi	r22, 0xC8	; 200
    1b80:	98 85       	ldd	r25, Y+8	; 0x08
    1b82:	91 92       	st	Z+, r9
    1b84:	8b 79       	andi	r24, 0x9B	; 155
    1b86:	83 93       	.word	0x9383	; ????
    1b88:	92 7a       	andi	r25, 0xA2	; 162
    1b8a:	82 71       	andi	r24, 0x12	; 18
    1b8c:	83 94       	inc	r8
    1b8e:	8a 72       	andi	r24, 0x2A	; 42
    1b90:	87 8e       	std	Z+31, r8	; 0x1f
    1b92:	91 74       	andi	r25, 0x41	; 65
    1b94:	7b 70       	andi	r23, 0x0B	; 11
    1b96:	75 86       	std	Z+13, r7	; 0x0d
    1b98:	81 81       	ldd	r24, Z+1	; 0x01
    1b9a:	7c 86       	std	Y+12, r7	; 0x0c
    1b9c:	82 77       	andi	r24, 0x72	; 114
    1b9e:	66 90       	elpm	r6, Z
    1ba0:	88 80       	ld	r8, Y
    1ba2:	8e 80       	ldd	r8, Y+6	; 0x06
    1ba4:	7c 7e       	andi	r23, 0xEC	; 236
    1ba6:	7c 88       	ldd	r7, Y+20	; 0x14
    1ba8:	93 92       	.word	0x9293	; ????
    1baa:	6e 96       	adiw	r28, 0x1e	; 30
    1bac:	84 79       	andi	r24, 0x94	; 148
    1bae:	7c 83       	std	Y+4, r23	; 0x04
    1bb0:	86 7f       	andi	r24, 0xF6	; 246
    1bb2:	7b 80       	ldd	r7, Y+3	; 0x03
    1bb4:	7d 7f       	andi	r23, 0xFD	; 253
    1bb6:	84 7a       	andi	r24, 0xA4	; 164
    1bb8:	7d 6a       	ori	r23, 0xAD	; 173
    1bba:	73 92       	.word	0x9273	; ????
    1bbc:	76 6e       	ori	r23, 0xE6	; 230
    1bbe:	80 76       	andi	r24, 0x60	; 96
    1bc0:	8a 99       	sbic	0x11, 2	; 17
    1bc2:	83 65       	ori	r24, 0x53	; 83
    1bc4:	8e 8a       	std	Y+22, r8	; 0x16
    1bc6:	99 8f       	std	Y+25, r25	; 0x19
    1bc8:	74 7a       	andi	r23, 0xA4	; 164
    1bca:	70 82       	st	Z, r7
    1bcc:	81 72       	andi	r24, 0x21	; 33
    1bce:	81 7c       	andi	r24, 0xC1	; 193
    1bd0:	8d 70       	andi	r24, 0x0D	; 13
    1bd2:	5d 5e       	subi	r21, 0xED	; 237
    1bd4:	a6 96       	adiw	r28, 0x26	; 38
    1bd6:	8b 83       	std	Y+3, r24	; 0x03
    1bd8:	77 83       	std	Z+7, r23	; 0x07
    1bda:	84 7c       	andi	r24, 0xC4	; 196
    1bdc:	72 9c       	mul	r7, r2
    1bde:	97 7c       	andi	r25, 0xC7	; 199
    1be0:	7f 7a       	andi	r23, 0xAF	; 175
    1be2:	8d 92       	st	X+, r8
    1be4:	9c 61       	ori	r25, 0x1C	; 28
    1be6:	5b 69       	ori	r21, 0x9B	; 155
    1be8:	86 87       	std	Z+14, r24	; 0x0e
    1bea:	70 69       	ori	r23, 0x90	; 144
    1bec:	7b 89       	ldd	r23, Y+19	; 0x13
    1bee:	86 76       	andi	r24, 0x66	; 102
    1bf0:	65 8f       	std	Z+29, r22	; 0x1d
    1bf2:	81 70       	andi	r24, 0x01	; 1
    1bf4:	6b 9a       	sbi	0x0d, 3	; 13
    1bf6:	80 6f       	ori	r24, 0xF0	; 240
    1bf8:	79 84       	ldd	r7, Y+9	; 0x09
    1bfa:	7d 91       	ld	r23, X+
    1bfc:	8c 71       	andi	r24, 0x1C	; 28
    1bfe:	86 89       	ldd	r24, Z+22	; 0x16
    1c00:	72 83       	std	Z+2, r23	; 0x02
    1c02:	8b 8c       	ldd	r8, Y+27	; 0x1b
    1c04:	96 8f       	std	Z+30, r25	; 0x1e
    1c06:	79 86       	std	Y+9, r7	; 0x09
    1c08:	79 6c       	ori	r23, 0xC9	; 201
    1c0a:	8b 85       	ldd	r24, Y+11	; 0x0b
    1c0c:	87 94       	ror	r8
    1c0e:	6d 6f       	ori	r22, 0xFD	; 253
    1c10:	75 6d       	ori	r23, 0xD5	; 213
    1c12:	a0 92 72 6e 	sts	0x6E72, r10
    1c16:	89 7a       	andi	r24, 0xA9	; 169
    1c18:	65 6b       	ori	r22, 0xB5	; 181
    1c1a:	91 80       	ldd	r9, Z+1	; 0x01
    1c1c:	79 7a       	andi	r23, 0xA9	; 169
    1c1e:	82 7d       	andi	r24, 0xD2	; 210
    1c20:	8e 8f       	std	Y+30, r24	; 0x1e
    1c22:	69 8d       	ldd	r22, Y+25	; 0x19
    1c24:	94 78       	andi	r25, 0x84	; 132
    1c26:	7f 84       	ldd	r7, Y+15	; 0x0f
    1c28:	7e 81       	ldd	r23, Y+6	; 0x06
    1c2a:	7c 82       	std	Y+4, r7	; 0x04
    1c2c:	7e 86       	std	Y+14, r7	; 0x0e
    1c2e:	8a 79       	andi	r24, 0x9A	; 154
    1c30:	7b 92       	.word	0x927b	; ????
    1c32:	91 65       	ori	r25, 0x51	; 81
    1c34:	79 7d       	andi	r23, 0xD9	; 217
    1c36:	79 7f       	andi	r23, 0xF9	; 249
    1c38:	76 78       	andi	r23, 0x86	; 134
    1c3a:	70 83       	st	Z, r23
    1c3c:	86 7f       	andi	r24, 0xF6	; 246
    1c3e:	74 83       	std	Z+4, r23	; 0x04
    1c40:	8a 7f       	andi	r24, 0xFA	; 250
    1c42:	7b 6a       	ori	r23, 0xAB	; 171
    1c44:	7b 8b       	std	Y+19, r23	; 0x13
    1c46:	95 6a       	ori	r25, 0xA5	; 165
    1c48:	78 81       	ld	r23, Y
    1c4a:	8a 72       	andi	r24, 0x2A	; 42
    1c4c:	6f 72       	andi	r22, 0x2F	; 47
    1c4e:	7d 7e       	andi	r23, 0xED	; 237
    1c50:	6b 66       	ori	r22, 0x6B	; 107
    1c52:	6e 84       	ldd	r6, Y+14	; 0x0e
    1c54:	75 73       	andi	r23, 0x35	; 53
    1c56:	67 69       	ori	r22, 0x97	; 151
    1c58:	96 8c       	ldd	r9, Z+30	; 0x1e
    1c5a:	7d 79       	andi	r23, 0x9D	; 157
    1c5c:	7f 7c       	andi	r23, 0xCF	; 207
    1c5e:	76 7c       	andi	r23, 0xC6	; 198
    1c60:	80 81       	ld	r24, Z
    1c62:	7e 72       	andi	r23, 0x2E	; 46
    1c64:	86 85       	ldd	r24, Z+14	; 0x0e
    1c66:	83 73       	andi	r24, 0x33	; 51
    1c68:	87 8c       	ldd	r8, Z+31	; 0x1f
    1c6a:	85 72       	andi	r24, 0x25	; 37
    1c6c:	7c 88       	ldd	r7, Y+20	; 0x14
    1c6e:	8a 84       	ldd	r8, Y+10	; 0x0a
    1c70:	83 86       	std	Z+11, r8	; 0x0b
    1c72:	89 87       	std	Y+9, r24	; 0x09
    1c74:	79 7d       	andi	r23, 0xD9	; 217
    1c76:	84 95       	.word	0x9584	; ????
    1c78:	71 6c       	ori	r23, 0xC1	; 193
    1c7a:	7c 88       	ldd	r7, Y+20	; 0x14
    1c7c:	8b 78       	andi	r24, 0x8B	; 139
    1c7e:	86 8b       	std	Z+22, r24	; 0x16
    1c80:	8c 76       	andi	r24, 0x6C	; 108
    1c82:	7b 81       	ldd	r23, Y+3	; 0x03
    1c84:	80 81       	ld	r24, Z
    1c86:	82 72       	andi	r24, 0x22	; 34
    1c88:	79 8e       	std	Y+25, r7	; 0x19
    1c8a:	7e 7d       	andi	r23, 0xDE	; 222
    1c8c:	6c 97       	sbiw	r28, 0x1c	; 28
    1c8e:	86 80       	ldd	r8, Z+6	; 0x06
    1c90:	7f 84       	ldd	r7, Y+15	; 0x0f
    1c92:	7a 80       	ldd	r7, Y+2	; 0x02
    1c94:	90 72       	andi	r25, 0x20	; 32
    1c96:	72 73       	andi	r23, 0x32	; 50
    1c98:	76 88       	ldd	r7, Z+22	; 0x16
    1c9a:	83 7c       	andi	r24, 0xC3	; 195
    1c9c:	8b 6f       	ori	r24, 0xFB	; 251
    1c9e:	7a 83       	std	Y+2, r23	; 0x02
    1ca0:	7f 7e       	andi	r23, 0xEF	; 239
    1ca2:	90 8b       	std	Z+16, r25	; 0x10
    1ca4:	87 6f       	ori	r24, 0xF7	; 247
    1ca6:	86 90       	elpm	r8, Z
    1ca8:	81 75       	andi	r24, 0x51	; 81
    1caa:	87 96       	adiw	r24, 0x27	; 39
    1cac:	8b 84       	ldd	r8, Y+11	; 0x0b
    1cae:	76 89       	ldd	r23, Z+22	; 0x16
    1cb0:	8a 83       	std	Y+2, r24	; 0x02
    1cb2:	7d 85       	ldd	r23, Y+13	; 0x0d
    1cb4:	7b 7d       	andi	r23, 0xDB	; 219
    1cb6:	88 85       	ldd	r24, Y+8	; 0x08
    1cb8:	7e 79       	andi	r23, 0x9E	; 158
    1cba:	80 84       	ldd	r8, Z+8	; 0x08
    1cbc:	89 73       	andi	r24, 0x39	; 57
    1cbe:	79 78       	andi	r23, 0x89	; 137
    1cc0:	83 7c       	andi	r24, 0xC3	; 195
    1cc2:	8a 82       	std	Y+2, r8	; 0x02
    1cc4:	77 71       	andi	r23, 0x17	; 23
    1cc6:	94 97       	sbiw	r26, 0x24	; 36
    1cc8:	96 81       	ldd	r25, Z+6	; 0x06
    1cca:	6e 7d       	andi	r22, 0xDE	; 222
    1ccc:	7a 77       	andi	r23, 0x7A	; 122
    1cce:	74 8b       	std	Z+20, r23	; 0x14
    1cd0:	92 95       	swap	r25
    1cd2:	8c 79       	andi	r24, 0x9C	; 156
    1cd4:	80 7e       	andi	r24, 0xE0	; 224
    1cd6:	79 7c       	andi	r23, 0xC9	; 201
    1cd8:	7b 83       	std	Y+3, r23	; 0x03
    1cda:	86 79       	andi	r24, 0x96	; 150
    1cdc:	6c 78       	andi	r22, 0x8C	; 140
    1cde:	7c 83       	std	Y+4, r23	; 0x04
    1ce0:	80 70       	andi	r24, 0x00	; 0
    1ce2:	71 87       	std	Z+9, r23	; 0x09
    1ce4:	89 8c       	ldd	r8, Y+25	; 0x19
    1ce6:	83 7e       	andi	r24, 0xE3	; 227
    1ce8:	88 88       	ldd	r8, Y+16	; 0x10
    1cea:	83 7c       	andi	r24, 0xC3	; 195
    1cec:	8a 9a       	sbi	0x11, 2	; 17
    1cee:	90 71       	andi	r25, 0x10	; 16
    1cf0:	72 76       	andi	r23, 0x62	; 98
    1cf2:	81 88       	ldd	r8, Z+17	; 0x11
    1cf4:	6c 7d       	andi	r22, 0xDC	; 220
    1cf6:	8a 85       	ldd	r24, Y+10	; 0x0a
    1cf8:	88 88       	ldd	r8, Y+16	; 0x10
    1cfa:	85 82       	std	Z+5, r8	; 0x05
    1cfc:	78 73       	andi	r23, 0x38	; 56
    1cfe:	81 88       	ldd	r8, Z+17	; 0x11
    1d00:	78 82       	st	Y, r7
    1d02:	88 88       	ldd	r8, Y+16	; 0x10
    1d04:	77 7c       	andi	r23, 0xC7	; 199
    1d06:	79 86       	std	Y+9, r7	; 0x09
    1d08:	80 7a       	andi	r24, 0xA0	; 160
    1d0a:	81 83       	std	Z+1, r24	; 0x01
    1d0c:	74 78       	andi	r23, 0x84	; 132
    1d0e:	8e 85       	ldd	r24, Y+14	; 0x0e
    1d10:	81 86       	std	Z+9, r8	; 0x09
    1d12:	7c 81       	ldd	r23, Y+4	; 0x04
    1d14:	74 7b       	andi	r23, 0xB4	; 180
    1d16:	81 7f       	andi	r24, 0xF1	; 241
    1d18:	8c 8b       	std	Y+20, r24	; 0x14
    1d1a:	80 83       	st	Z, r24
    1d1c:	74 83       	std	Z+4, r23	; 0x04
    1d1e:	7c 86       	std	Y+12, r7	; 0x0c
    1d20:	88 88       	ldd	r8, Y+16	; 0x10
    1d22:	7c 73       	andi	r23, 0x3C	; 60
    1d24:	73 8d       	ldd	r23, Z+27	; 0x1b
    1d26:	87 7f       	andi	r24, 0xF7	; 247
    1d28:	7f 7a       	andi	r23, 0xAF	; 175
    1d2a:	80 82       	st	Z, r8
    1d2c:	92 6c       	ori	r25, 0xC2	; 194
    1d2e:	84 86       	std	Z+12, r8	; 0x0c
    1d30:	89 7d       	andi	r24, 0xD9	; 217
    1d32:	7e 72       	andi	r23, 0x2E	; 46
    1d34:	79 87       	std	Y+9, r23	; 0x09
    1d36:	8d 79       	andi	r24, 0x9D	; 157
    1d38:	76 85       	ldd	r23, Z+14	; 0x0e
    1d3a:	8c 86       	std	Y+12, r8	; 0x0c
    1d3c:	7e 81       	ldd	r23, Y+6	; 0x06
    1d3e:	83 86       	std	Z+11, r8	; 0x0b
    1d40:	83 7b       	andi	r24, 0xB3	; 179
    1d42:	7d 83       	std	Y+5, r23	; 0x05
    1d44:	86 86       	std	Z+14, r8	; 0x0e
    1d46:	7e 7d       	andi	r23, 0xDE	; 222
    1d48:	84 8a       	std	Z+20, r8	; 0x14
    1d4a:	7d 7e       	andi	r23, 0xED	; 237
    1d4c:	80 7d       	andi	r24, 0xD0	; 208
    1d4e:	81 7f       	andi	r24, 0xF1	; 241
    1d50:	79 7f       	andi	r23, 0xF9	; 249
    1d52:	84 86       	std	Z+12, r8	; 0x0c
    1d54:	78 86       	std	Y+8, r7	; 0x08
    1d56:	7b 83       	std	Y+3, r23	; 0x03
    1d58:	82 86       	std	Z+10, r8	; 0x0a
    1d5a:	7a 8b       	std	Y+18, r23	; 0x12
    1d5c:	83 7a       	andi	r24, 0xA3	; 163
    1d5e:	7d 7e       	andi	r23, 0xED	; 237
    1d60:	81 87       	std	Z+9, r24	; 0x09
    1d62:	7d 80       	ldd	r7, Y+5	; 0x05
    1d64:	86 7e       	andi	r24, 0xE6	; 230
    1d66:	83 7c       	andi	r24, 0xC3	; 195
    1d68:	82 82       	std	Z+2, r8	; 0x02
    1d6a:	83 7e       	andi	r24, 0xE3	; 227
    1d6c:	7b 7b       	andi	r23, 0xBB	; 187
    1d6e:	87 7a       	andi	r24, 0xA7	; 167
    1d70:	7d 83       	std	Y+5, r23	; 0x05
    1d72:	7f 7f       	andi	r23, 0xFF	; 255
    1d74:	80 7f       	andi	r24, 0xF0	; 240
    1d76:	7f 7f       	andi	r23, 0xFF	; 255
    1d78:	82 80       	ldd	r8, Z+2	; 0x02
    1d7a:	7d 80       	ldd	r7, Y+5	; 0x05
    1d7c:	7e 81       	ldd	r23, Y+6	; 0x06
    1d7e:	7e 7f       	andi	r23, 0xFE	; 254
    1d80:	85 84       	ldd	r8, Z+13	; 0x0d
    1d82:	80 82       	st	Z, r8
    1d84:	81 83       	std	Z+1, r24	; 0x01
    1d86:	89 83       	std	Y+1, r24	; 0x01
    1d88:	80 88       	ldd	r8, Z+16	; 0x10
    1d8a:	8a 82       	std	Y+2, r8	; 0x02
    1d8c:	84 85       	ldd	r24, Z+12	; 0x0c
    1d8e:	8b 88       	ldd	r8, Y+19	; 0x13
    1d90:	89 85       	ldd	r24, Y+9	; 0x09
    1d92:	89 8b       	std	Y+17, r24	; 0x11
    1d94:	85 7a       	andi	r24, 0xA5	; 165
    1d96:	79 74       	andi	r23, 0x49	; 73
    1d98:	6e 6a       	ori	r22, 0xAE	; 174
    1d9a:	67 6d       	ori	r22, 0xD7	; 215
    1d9c:	6e 6f       	ori	r22, 0xFE	; 254
    1d9e:	74 7d       	andi	r23, 0xD4	; 212
    1da0:	82 84       	ldd	r8, Z+10	; 0x0a
    1da2:	84 84       	ldd	r8, Z+12	; 0x0c
    1da4:	84 83       	std	Z+4, r24	; 0x04
    1da6:	7e 7a       	andi	r23, 0xAE	; 174
    1da8:	7c 7e       	andi	r23, 0xEC	; 236
    1daa:	7c 7b       	andi	r23, 0xBC	; 188
    1dac:	7f 80       	ldd	r7, Y+7	; 0x07
    1dae:	82 82       	std	Z+2, r8	; 0x02
    1db0:	83 84       	ldd	r8, Z+11	; 0x0b
    1db2:	86 85       	ldd	r24, Z+14	; 0x0e
    1db4:	84 84       	ldd	r8, Z+12	; 0x0c
    1db6:	83 83       	std	Z+3, r24	; 0x03
    1db8:	83 7f       	andi	r24, 0xF3	; 243
    1dba:	7f 7e       	andi	r23, 0xEF	; 239
    1dbc:	7d 7f       	andi	r23, 0xFD	; 253
    1dbe:	7c 82       	std	Y+4, r7	; 0x04
    1dc0:	87 85       	ldd	r24, Z+15	; 0x0f
    1dc2:	86 87       	std	Z+14, r24	; 0x0e
    1dc4:	86 8c       	ldd	r8, Z+30	; 0x1e
    1dc6:	8a 89       	ldd	r24, Y+18	; 0x12
    1dc8:	8d 8b       	std	Y+21, r24	; 0x15
    1dca:	92 96       	adiw	r26, 0x22	; 34
    1dcc:	a0 9e       	mul	r10, r16
    1dce:	a0 8e       	std	Z+24, r10	; 0x18
    1dd0:	73 6a       	ori	r23, 0xA3	; 163
    1dd2:	68 5c       	subi	r22, 0xC8	; 200
    1dd4:	47 42       	sbci	r20, 0x27	; 39
    1dd6:	55 62       	ori	r21, 0x25	; 37
    1dd8:	6c 75       	andi	r22, 0x5C	; 92
    1dda:	81 9c       	mul	r8, r1
    1ddc:	a5 a0       	ldd	r10, Z+37	; 0x25
    1dde:	9e a1       	ldd	r25, Y+38	; 0x26
    1de0:	98 8b       	std	Y+16, r25	; 0x10
    1de2:	7b 71       	andi	r23, 0x1B	; 27
    1de4:	70 6c       	ori	r23, 0xC0	; 192
    1de6:	65 67       	ori	r22, 0x75	; 117
    1de8:	76 7c       	andi	r23, 0xC6	; 198
    1dea:	80 8a       	std	Z+16, r8	; 0x10
    1dec:	91 98       	cbi	0x12, 1	; 18
    1dee:	97 94       	ror	r9
    1df0:	90 8e       	std	Z+24, r9	; 0x18
    1df2:	88 7c       	andi	r24, 0xC8	; 200
    1df4:	74 70       	andi	r23, 0x04	; 4
    1df6:	66 64       	ori	r22, 0x46	; 70
    1df8:	66 65       	ori	r22, 0x56	; 86
    1dfa:	6b 73       	andi	r22, 0x3B	; 59
    1dfc:	7a 7e       	andi	r23, 0xEA	; 234
    1dfe:	87 8a       	std	Z+23, r8	; 0x17
    1e00:	8c 8c       	ldd	r8, Y+28	; 0x1c
    1e02:	89 85       	ldd	r24, Y+9	; 0x09
    1e04:	83 7a       	andi	r24, 0xA3	; 163
    1e06:	77 76       	andi	r23, 0x67	; 103
    1e08:	77 76       	andi	r23, 0x67	; 103
    1e0a:	7a 7e       	andi	r23, 0xEA	; 234
    1e0c:	82 8a       	std	Z+18, r8	; 0x12
    1e0e:	8c 8d       	ldd	r24, Y+28	; 0x1c
    1e10:	8f 90       	pop	r8
    1e12:	8d 8c       	ldd	r8, Y+29	; 0x1d
    1e14:	8a 88       	ldd	r8, Y+18	; 0x12
    1e16:	84 8a       	std	Z+20, r8	; 0x14
    1e18:	84 84       	ldd	r8, Z+12	; 0x0c
    1e1a:	8b 88       	ldd	r8, Y+19	; 0x13
    1e1c:	8d 95 9a 9a 	jmp	0x633534	; 0x633534 <_etext+0x63046a>
    1e20:	a0 a4       	ldd	r10, Z+40	; 0x28
    1e22:	90 7b       	andi	r25, 0xB0	; 176
    1e24:	5f 61       	ori	r21, 0x1F	; 31
    1e26:	5a 44       	sbci	r21, 0x4A	; 74
    1e28:	3d 4d       	sbci	r19, 0xDD	; 221
    1e2a:	63 6d       	ori	r22, 0xD3	; 211
    1e2c:	78 87       	std	Y+8, r23	; 0x08
    1e2e:	a6 b1       	in	r26, 0x06	; 6
    1e30:	ab a4       	ldd	r10, Y+43	; 0x2b
    1e32:	a3 93       	.word	0x93a3	; ????
    1e34:	85 6d       	ori	r24, 0xD5	; 213
    1e36:	62 5f       	subi	r22, 0xF2	; 242
    1e38:	5d 58       	subi	r21, 0x8D	; 141
    1e3a:	65 79       	andi	r22, 0x95	; 149
    1e3c:	81 8c       	ldd	r8, Z+25	; 0x19
    1e3e:	9a a8       	ldd	r9, Y+50	; 0x32
    1e40:	ac aa       	std	Y+52, r10	; 0x34
    1e42:	a0 9a       	sbi	0x14, 0	; 20
    1e44:	95 83       	std	Z+5, r25	; 0x05
    1e46:	71 61       	ori	r23, 0x11	; 17
    1e48:	5a 53       	subi	r21, 0x3A	; 58
    1e4a:	56 5f       	subi	r21, 0xF6	; 246
    1e4c:	5f 72       	andi	r21, 0x2F	; 47
    1e4e:	7e 90       	ld	r7, -X
    1e50:	93 9c       	mul	r9, r3
    1e52:	9a 95       	dec	r25
    1e54:	90 86       	std	Z+8, r9	; 0x08
    1e56:	79 72       	andi	r23, 0x29	; 41
    1e58:	6b 69       	ori	r22, 0x9B	; 155
    1e5a:	67 6d       	ori	r22, 0xD7	; 215
    1e5c:	75 7c       	andi	r23, 0xC5	; 197
    1e5e:	83 88       	ldd	r8, Z+19	; 0x13
    1e60:	8f 91       	pop	r24
    1e62:	90 8f       	std	Z+24, r25	; 0x18
    1e64:	8d 89       	ldd	r24, Y+21	; 0x15
    1e66:	87 82       	std	Z+7, r8	; 0x07
    1e68:	81 7e       	andi	r24, 0xE1	; 225
    1e6a:	7e 7a       	andi	r23, 0xAE	; 174
    1e6c:	7b 7c       	andi	r23, 0xCB	; 203
    1e6e:	80 7f       	andi	r24, 0xF0	; 240
    1e70:	85 86       	std	Z+13, r8	; 0x0d
    1e72:	8d 91       	ld	r24, X+
    1e74:	92 96       	adiw	r26, 0x22	; 34
    1e76:	96 97       	sbiw	r26, 0x26	; 38
    1e78:	99 95       	.word	0x9599	; ????
    1e7a:	94 8d       	ldd	r25, Z+28	; 0x1c
    1e7c:	7b 74       	andi	r23, 0x4B	; 75
    1e7e:	69 5d       	subi	r22, 0xD9	; 217
    1e80:	52 56       	subi	r21, 0x62	; 98
    1e82:	5b 63       	ori	r21, 0x3B	; 59
    1e84:	6c 7d       	andi	r22, 0xDC	; 220
    1e86:	84 90       	lpm	r8, Z
    1e88:	97 98       	cbi	0x12, 7	; 18
    1e8a:	99 97       	sbiw	r26, 0x29	; 41
    1e8c:	8b 80       	ldd	r8, Y+3	; 0x03
    1e8e:	79 70       	andi	r23, 0x09	; 9
    1e90:	6a 69       	ori	r22, 0x9A	; 154
    1e92:	6a 71       	andi	r22, 0x1A	; 26
    1e94:	7a 80       	ldd	r7, Y+2	; 0x02
    1e96:	86 92       	lac	Z, r8
    1e98:	97 99       	sbic	0x12, 7	; 18
    1e9a:	9a 96       	adiw	r26, 0x2a	; 42
    1e9c:	90 88       	ldd	r9, Z+16	; 0x10
    1e9e:	81 78       	andi	r24, 0x81	; 129
    1ea0:	6f 67       	ori	r22, 0x7F	; 127
    1ea2:	61 66       	ori	r22, 0x61	; 97
    1ea4:	6e 71       	andi	r22, 0x1E	; 30
    1ea6:	77 83       	std	Z+7, r23	; 0x07
    1ea8:	89 8d       	ldd	r24, Y+25	; 0x19
    1eaa:	90 8e       	std	Z+24, r9	; 0x18
    1eac:	8c 86       	std	Y+12, r8	; 0x0c
    1eae:	7e 7b       	andi	r23, 0xBE	; 190
    1eb0:	76 71       	andi	r23, 0x16	; 22
    1eb2:	6e 71       	andi	r22, 0x1E	; 30
    1eb4:	75 7b       	andi	r23, 0xB5	; 181
    1eb6:	80 80       	ld	r8, Z
    1eb8:	87 8a       	std	Z+23, r8	; 0x17
    1eba:	89 89       	ldd	r24, Y+17	; 0x11
    1ebc:	88 86       	std	Y+8, r8	; 0x08
    1ebe:	83 83       	std	Z+3, r24	; 0x03
    1ec0:	7f 7e       	andi	r23, 0xEF	; 239
    1ec2:	7e 7e       	andi	r23, 0xEE	; 238
    1ec4:	7b 7c       	andi	r23, 0xCB	; 203
    1ec6:	7d 7d       	andi	r23, 0xDD	; 221
    1ec8:	81 84       	ldd	r8, Z+9	; 0x09
    1eca:	87 89       	ldd	r24, Z+23	; 0x17
    1ecc:	8e 8d       	ldd	r24, Y+30	; 0x1e
    1ece:	90 8e       	std	Z+24, r9	; 0x18
    1ed0:	8d 90       	ld	r8, X+
    1ed2:	86 86       	std	Z+14, r8	; 0x0e
    1ed4:	8a 88       	ldd	r8, Y+18	; 0x12
    1ed6:	85 86       	std	Z+13, r8	; 0x0d
    1ed8:	87 7f       	andi	r24, 0xF7	; 247
    1eda:	7b 76       	andi	r23, 0x6B	; 107
    1edc:	73 6a       	ori	r23, 0xA3	; 163
    1ede:	68 69       	ori	r22, 0x98	; 152
    1ee0:	69 6d       	ori	r22, 0xD9	; 217
    1ee2:	71 79       	andi	r23, 0x91	; 145
    1ee4:	7e 85       	ldd	r23, Y+14	; 0x0e
    1ee6:	89 8c       	ldd	r8, Y+25	; 0x19
    1ee8:	8f 8d       	ldd	r24, Y+31	; 0x1f
    1eea:	87 84       	ldd	r8, Z+15	; 0x0f
    1eec:	81 7f       	andi	r24, 0xF1	; 241
    1eee:	7a 77       	andi	r23, 0x7A	; 122
    1ef0:	7a 7d       	andi	r23, 0xDA	; 218
    1ef2:	7e 82       	std	Y+6, r7	; 0x06
    1ef4:	86 89       	ldd	r24, Z+22	; 0x16
    1ef6:	8c 8c       	ldd	r8, Y+28	; 0x1c
    1ef8:	8a 88       	ldd	r8, Y+18	; 0x12
    1efa:	84 7f       	andi	r24, 0xF4	; 244
    1efc:	7c 7a       	andi	r23, 0xAC	; 172
    1efe:	73 6f       	ori	r23, 0xF3	; 243
    1f00:	74 75       	andi	r23, 0x54	; 84
    1f02:	76 7a       	andi	r23, 0xA6	; 166
    1f04:	7f 82       	std	Y+7, r7	; 0x07
    1f06:	84 84       	ldd	r8, Z+12	; 0x0c
    1f08:	84 85       	ldd	r24, Z+12	; 0x0c
    1f0a:	82 7f       	andi	r24, 0xF2	; 242
    1f0c:	7e 7c       	andi	r23, 0xCE	; 206
    1f0e:	7a 79       	andi	r23, 0x9A	; 154
    1f10:	7b 7c       	andi	r23, 0xCB	; 203
    1f12:	7d 7f       	andi	r23, 0xFD	; 253
    1f14:	80 84       	ldd	r8, Z+8	; 0x08
    1f16:	84 83       	std	Z+4, r24	; 0x04
    1f18:	84 84       	ldd	r8, Z+12	; 0x0c
    1f1a:	82 83       	std	Z+2, r24	; 0x02
    1f1c:	81 81       	ldd	r24, Z+1	; 0x01
    1f1e:	81 7f       	andi	r24, 0xF1	; 241
    1f20:	80 81       	ld	r24, Z
    1f22:	81 80       	ldd	r8, Z+1	; 0x01
    1f24:	82 86       	std	Z+10, r8	; 0x0a
    1f26:	85 86       	std	Z+13, r8	; 0x0d
    1f28:	8a 8e       	std	Y+26, r8	; 0x1a
    1f2a:	8d 8a       	std	Y+21, r8	; 0x15
    1f2c:	8b 8f       	std	Y+27, r24	; 0x1b
    1f2e:	8a 8a       	std	Y+18, r8	; 0x12
    1f30:	8a 8a       	std	Y+18, r8	; 0x12
    1f32:	88 7f       	andi	r24, 0xF8	; 248
    1f34:	75 71       	andi	r23, 0x15	; 21
    1f36:	70 6a       	ori	r23, 0xA0	; 160
    1f38:	66 6b       	ori	r22, 0xB6	; 182
    1f3a:	6e 73       	andi	r22, 0x3E	; 62
    1f3c:	79 7f       	andi	r23, 0xF9	; 249
    1f3e:	86 8a       	std	Z+22, r8	; 0x16
    1f40:	8b 89       	ldd	r24, Y+19	; 0x13
    1f42:	8a 88       	ldd	r8, Y+18	; 0x12
    1f44:	7f 7c       	andi	r23, 0xCF	; 207
    1f46:	7b 78       	andi	r23, 0x8B	; 139
    1f48:	78 79       	andi	r23, 0x98	; 152
    1f4a:	7c 82       	std	Y+4, r7	; 0x04
    1f4c:	85 88       	ldd	r8, Z+21	; 0x15
    1f4e:	8b 8d       	ldd	r24, Y+27	; 0x1b
    1f50:	8b 8a       	std	Y+19, r8	; 0x13
    1f52:	88 85       	ldd	r24, Y+8	; 0x08
    1f54:	7e 78       	andi	r23, 0x8E	; 142
    1f56:	77 76       	andi	r23, 0x67	; 103
    1f58:	75 74       	andi	r23, 0x45	; 69
    1f5a:	76 78       	andi	r23, 0x86	; 134
    1f5c:	7c 7f       	andi	r23, 0xFC	; 252
    1f5e:	81 83       	std	Z+1, r24	; 0x01
    1f60:	84 83       	std	Z+4, r24	; 0x04
    1f62:	81 81       	ldd	r24, Z+1	; 0x01
    1f64:	7f 7d       	andi	r23, 0xDF	; 223
    1f66:	7a 7a       	andi	r23, 0xAA	; 170
    1f68:	7b 7c       	andi	r23, 0xCB	; 203
    1f6a:	7c 7e       	andi	r23, 0xEC	; 236
    1f6c:	80 82       	st	Z, r8
    1f6e:	82 83       	std	Z+2, r24	; 0x02
    1f70:	83 84       	ldd	r8, Z+11	; 0x0b
    1f72:	82 81       	ldd	r24, Z+2	; 0x02
    1f74:	81 81       	ldd	r24, Z+1	; 0x01
    1f76:	7e 7e       	andi	r23, 0xEE	; 238
    1f78:	7f 80       	ldd	r7, Y+7	; 0x07
    1f7a:	80 7f       	andi	r24, 0xF0	; 240
    1f7c:	80 81       	ld	r24, Z
    1f7e:	82 81       	ldd	r24, Z+2	; 0x02
    1f80:	81 82       	std	Z+1, r8	; 0x01
    1f82:	83 83       	std	Z+3, r24	; 0x03
    1f84:	85 86       	std	Z+13, r8	; 0x0d
    1f86:	89 8c       	ldd	r8, Y+25	; 0x19
    1f88:	8e 90       	ld	r8, -X
    1f8a:	8e 90       	ld	r8, -X
    1f8c:	8e 89       	ldd	r24, Y+22	; 0x16
    1f8e:	84 7a       	andi	r24, 0xA4	; 164
    1f90:	75 70       	andi	r23, 0x05	; 5
    1f92:	6c 66       	ori	r22, 0x6C	; 108
    1f94:	66 6c       	ori	r22, 0xC6	; 198
    1f96:	70 78       	andi	r23, 0x80	; 128
    1f98:	7c 81       	ldd	r23, Y+4	; 0x04
    1f9a:	8b 8d       	ldd	r24, Y+27	; 0x1b
    1f9c:	8c 8c       	ldd	r8, Y+28	; 0x1c
    1f9e:	89 84       	ldd	r8, Y+9	; 0x09
    1fa0:	7f 7a       	andi	r23, 0xAF	; 175
    1fa2:	76 75       	andi	r23, 0x56	; 86
    1fa4:	75 76       	andi	r23, 0x65	; 101
    1fa6:	7b 81       	ldd	r23, Y+3	; 0x03
    1fa8:	84 88       	ldd	r8, Z+20	; 0x14
    1faa:	8d 8d       	ldd	r24, Y+29	; 0x1d
    1fac:	8f 8d       	ldd	r24, Y+31	; 0x1f
    1fae:	89 83       	std	Y+1, r24	; 0x01
    1fb0:	80 7d       	andi	r24, 0xD0	; 208
    1fb2:	76 75       	andi	r23, 0x56	; 86
    1fb4:	74 73       	andi	r23, 0x34	; 52
    1fb6:	77 7b       	andi	r23, 0xB7	; 183
    1fb8:	7c 7f       	andi	r23, 0xFC	; 252
    1fba:	83 85       	ldd	r24, Z+11	; 0x0b
    1fbc:	85 86       	std	Z+13, r8	; 0x0d
    1fbe:	84 82       	std	Z+4, r8	; 0x04
    1fc0:	80 7d       	andi	r24, 0xD0	; 208
    1fc2:	7c 7b       	andi	r23, 0xBC	; 188
    1fc4:	7a 79       	andi	r23, 0x9A	; 154
    1fc6:	7b 7c       	andi	r23, 0xCB	; 203
    1fc8:	7e 81       	ldd	r23, Y+6	; 0x06
    1fca:	83 84       	ldd	r8, Z+11	; 0x0b
    1fcc:	85 86       	std	Z+13, r8	; 0x0d
    1fce:	85 85       	ldd	r24, Z+13	; 0x0d
    1fd0:	83 81       	ldd	r24, Z+3	; 0x03
    1fd2:	82 7f       	andi	r24, 0xF2	; 242
    1fd4:	7e 7e       	andi	r23, 0xEE	; 238
    1fd6:	7d 7d       	andi	r23, 0xDD	; 221
    1fd8:	7e 7f       	andi	r23, 0xFE	; 254
    1fda:	7f 80       	ldd	r7, Y+7	; 0x07
    1fdc:	82 82       	std	Z+2, r8	; 0x02
    1fde:	83 84       	ldd	r8, Z+11	; 0x0b
    1fe0:	83 83       	std	Z+3, r24	; 0x03
    1fe2:	81 81       	ldd	r24, Z+1	; 0x01
    1fe4:	81 81       	ldd	r24, Z+1	; 0x01
    1fe6:	7f 80       	ldd	r7, Y+7	; 0x07
    1fe8:	83 82       	std	Z+3, r8	; 0x03
    1fea:	85 89       	ldd	r24, Z+21	; 0x15
    1fec:	8c 8c       	ldd	r8, Y+28	; 0x1c
    1fee:	8c 8b       	std	Y+20, r24	; 0x14
    1ff0:	83 7b       	andi	r24, 0xB3	; 179
    1ff2:	78 73       	andi	r23, 0x38	; 56
    1ff4:	6c 69       	ori	r22, 0x9C	; 156
    1ff6:	6a 6e       	ori	r22, 0xEA	; 234
    1ff8:	73 7a       	andi	r23, 0xA3	; 163
    1ffa:	82 89       	ldd	r24, Z+18	; 0x12
    1ffc:	8f 8f       	std	Y+31, r24	; 0x1f
    1ffe:	92 91       	ld	r25, -Z
    2000:	8c 84       	ldd	r8, Y+12	; 0x0c
    2002:	7c 77       	andi	r23, 0x7C	; 124
    2004:	74 71       	andi	r23, 0x14	; 20
    2006:	70 72       	andi	r23, 0x20	; 32
    2008:	77 7d       	andi	r23, 0xD7	; 215
    200a:	82 88       	ldd	r8, Z+18	; 0x12
    200c:	8c 8f       	std	Y+28, r24	; 0x1c
    200e:	8f 8c       	ldd	r8, Y+31	; 0x1f
    2010:	8a 86       	std	Y+10, r8	; 0x0a
    2012:	7d 7b       	andi	r23, 0xBD	; 189
    2014:	78 74       	andi	r23, 0x48	; 72
    2016:	72 74       	andi	r23, 0x42	; 66
    2018:	77 79       	andi	r23, 0x97	; 151
    201a:	7d 82       	std	Y+5, r7	; 0x05
    201c:	84 87       	std	Z+12, r24	; 0x0c
    201e:	86 85       	ldd	r24, Z+14	; 0x0e
    2020:	86 83       	std	Z+6, r24	; 0x06
    2022:	80 7d       	andi	r24, 0xD0	; 208
    2024:	7b 7b       	andi	r23, 0xBB	; 187
    2026:	7a 7b       	andi	r23, 0xBA	; 186
    2028:	7c 7f       	andi	r23, 0xFC	; 252
    202a:	82 82       	std	Z+2, r8	; 0x02
    202c:	84 86       	std	Z+12, r8	; 0x0c
    202e:	85 84       	ldd	r8, Z+13	; 0x0d
    2030:	84 83       	std	Z+4, r24	; 0x04
    2032:	81 80       	ldd	r8, Z+1	; 0x01
    2034:	7f 7f       	andi	r23, 0xFF	; 255
    2036:	7f 7e       	andi	r23, 0xEF	; 239
    2038:	7e 7f       	andi	r23, 0xFE	; 254
    203a:	7f 80       	ldd	r7, Y+7	; 0x07
    203c:	81 80       	ldd	r8, Z+1	; 0x01
    203e:	80 82       	st	Z, r8
    2040:	82 80       	ldd	r8, Z+2	; 0x02
    2042:	84 82       	std	Z+4, r8	; 0x04
    2044:	81 80       	ldd	r8, Z+1	; 0x01
    2046:	81 7f       	andi	r24, 0xF1	; 241
    2048:	7f 81       	ldd	r23, Y+7	; 0x07
    204a:	81 82       	std	Z+1, r8	; 0x01
    204c:	84 84       	ldd	r8, Z+12	; 0x0c
    204e:	85 88       	ldd	r8, Z+21	; 0x15
    2050:	88 84       	ldd	r8, Y+8	; 0x08
    2052:	82 7f       	andi	r24, 0xF2	; 242
    2054:	7a 78       	andi	r23, 0x8A	; 138
    2056:	73 72       	andi	r23, 0x23	; 35
    2058:	74 75       	andi	r23, 0x54	; 84
    205a:	78 7e       	andi	r23, 0xE8	; 232
    205c:	84 87       	std	Z+12, r24	; 0x0c
    205e:	8b 8c       	ldd	r8, Y+27	; 0x1b
    2060:	8b 8b       	std	Y+19, r24	; 0x13
    2062:	86 80       	ldd	r8, Z+6	; 0x06
    2064:	7d 79       	andi	r23, 0x9D	; 157
    2066:	76 75       	andi	r23, 0x56	; 86
    2068:	77 79       	andi	r23, 0x97	; 151
    206a:	7c 80       	ldd	r7, Y+4	; 0x04
    206c:	85 89       	ldd	r24, Z+21	; 0x15
    206e:	8b 8a       	std	Y+19, r8	; 0x13
    2070:	89 88       	ldd	r8, Y+17	; 0x11
    2072:	86 7f       	andi	r24, 0xF6	; 246
    2074:	7c 7a       	andi	r23, 0xAC	; 172
    2076:	78 74       	andi	r23, 0x48	; 72
    2078:	76 7a       	andi	r23, 0xA6	; 166
    207a:	7c 7c       	andi	r23, 0xCC	; 204
    207c:	81 84       	ldd	r8, Z+9	; 0x09
    207e:	85 85       	ldd	r24, Z+13	; 0x0d
    2080:	86 85       	ldd	r24, Z+14	; 0x0e
    2082:	83 81       	ldd	r24, Z+3	; 0x03
    2084:	7d 7d       	andi	r23, 0xDD	; 221
    2086:	7c 7c       	andi	r23, 0xCC	; 204
    2088:	7b 7c       	andi	r23, 0xCB	; 203
    208a:	7f 81       	ldd	r23, Y+7	; 0x07
    208c:	82 84       	ldd	r8, Z+10	; 0x0a
    208e:	84 85       	ldd	r24, Z+12	; 0x0c
    2090:	82 82       	std	Z+2, r8	; 0x02
    2092:	82 81       	ldd	r24, Z+2	; 0x02
    2094:	7f 7f       	andi	r23, 0xFF	; 255
    2096:	7e 7e       	andi	r23, 0xEE	; 238
    2098:	7e 7f       	andi	r23, 0xFE	; 254
    209a:	80 81       	ld	r24, Z
    209c:	81 81       	ldd	r24, Z+1	; 0x01
    209e:	81 82       	std	Z+1, r8	; 0x01
    20a0:	80 82       	st	Z, r8
    20a2:	81 80       	ldd	r8, Z+1	; 0x01
    20a4:	80 80       	ld	r8, Z
    20a6:	7f 7e       	andi	r23, 0xEF	; 239
    20a8:	80 81       	ld	r24, Z
    20aa:	7f 81       	ldd	r23, Y+7	; 0x07
    20ac:	83 84       	ldd	r8, Z+11	; 0x0b
    20ae:	84 85       	ldd	r24, Z+12	; 0x0c
    20b0:	85 85       	ldd	r24, Z+13	; 0x0d
    20b2:	82 7f       	andi	r24, 0xF2	; 242
    20b4:	7e 7c       	andi	r23, 0xCE	; 206
    20b6:	78 77       	andi	r23, 0x78	; 120
    20b8:	76 77       	andi	r23, 0x76	; 118
    20ba:	7a 7c       	andi	r23, 0xCA	; 202
    20bc:	7f 83       	std	Y+7, r23	; 0x07
    20be:	87 88       	ldd	r8, Z+23	; 0x17
    20c0:	88 89       	ldd	r24, Y+16	; 0x10
    20c2:	86 83       	std	Z+6, r24	; 0x06
    20c4:	80 7d       	andi	r24, 0xD0	; 208
    20c6:	7b 79       	andi	r23, 0x9B	; 155
    20c8:	78 79       	andi	r23, 0x98	; 152
    20ca:	7b 7e       	andi	r23, 0xEB	; 235
    20cc:	80 84       	ldd	r8, Z+8	; 0x08
    20ce:	87 86       	std	Z+15, r8	; 0x0f
    20d0:	87 87       	std	Z+15, r24	; 0x0f
    20d2:	84 82       	std	Z+4, r8	; 0x04
    20d4:	80 7d       	andi	r24, 0xD0	; 208
    20d6:	7c 7a       	andi	r23, 0xAC	; 172
    20d8:	79 7a       	andi	r23, 0xA9	; 169
    20da:	7c 7e       	andi	r23, 0xEC	; 236
    20dc:	80 81       	ld	r24, Z
    20de:	83 83       	std	Z+3, r24	; 0x03
    20e0:	83 83       	std	Z+3, r24	; 0x03
    20e2:	82 81       	ldd	r24, Z+2	; 0x02
    20e4:	7f 7e       	andi	r23, 0xEF	; 239
    20e6:	7e 7e       	andi	r23, 0xEE	; 238
    20e8:	7d 7d       	andi	r23, 0xDD	; 221
    20ea:	7f 7f       	andi	r23, 0xFF	; 255
    20ec:	80 81       	ld	r24, Z
    20ee:	82 82       	std	Z+2, r8	; 0x02
    20f0:	81 82       	std	Z+1, r8	; 0x01
    20f2:	82 81       	ldd	r24, Z+2	; 0x02
    20f4:	80 7f       	andi	r24, 0xF0	; 240
    20f6:	7f 80       	ldd	r7, Y+7	; 0x07
    20f8:	80 7f       	andi	r24, 0xF0	; 240
    20fa:	7f 80       	ldd	r7, Y+7	; 0x07
    20fc:	80 80       	ld	r8, Z
    20fe:	81 80       	ldd	r8, Z+1	; 0x01
    2100:	81 80       	ldd	r8, Z+1	; 0x01
    2102:	80 80       	ld	r8, Z
    2104:	80 80       	ld	r8, Z
    2106:	80 80       	ld	r8, Z
    2108:	81 80       	ldd	r8, Z+1	; 0x01
    210a:	80 80       	ld	r8, Z
    210c:	81 80       	ldd	r8, Z+1	; 0x01
    210e:	80 80       	ld	r8, Z
    2110:	80 81       	ld	r24, Z
    2112:	81 81       	ldd	r24, Z+1	; 0x01
    2114:	81 81       	ldd	r24, Z+1	; 0x01
    2116:	7f 80       	ldd	r7, Y+7	; 0x07
    2118:	7f 7f       	andi	r23, 0xFF	; 255
    211a:	7e 7e       	andi	r23, 0xEE	; 238
    211c:	7e 7f       	andi	r23, 0xFE	; 254
    211e:	7f 80       	ldd	r7, Y+7	; 0x07
    2120:	81 82       	std	Z+1, r8	; 0x01
    2122:	82 82       	std	Z+2, r8	; 0x02
    2124:	82 82       	std	Z+2, r8	; 0x02
    2126:	81 81       	ldd	r24, Z+1	; 0x01
    2128:	7f 7e       	andi	r23, 0xEF	; 239
    212a:	7e 7e       	andi	r23, 0xEE	; 238
    212c:	7d 7e       	andi	r23, 0xED	; 237
    212e:	7f 7f       	andi	r23, 0xFF	; 255
    2130:	80 80       	ld	r8, Z
    2132:	82 81       	ldd	r24, Z+2	; 0x02
    2134:	81 81       	ldd	r24, Z+1	; 0x01
    2136:	80 81       	ld	r24, Z
    2138:	80 7f       	andi	r24, 0xF0	; 240
    213a:	7f 7e       	andi	r23, 0xEF	; 239
    213c:	7f 7f       	andi	r23, 0xFF	; 255
    213e:	7f 7f       	andi	r23, 0xFF	; 255
    2140:	80 80       	ld	r8, Z
    2142:	80 81       	ld	r24, Z
    2144:	81 81       	ldd	r24, Z+1	; 0x01
    2146:	80 80       	ld	r8, Z
    2148:	80 7f       	andi	r24, 0xF0	; 240
    214a:	80 7f       	andi	r24, 0xF0	; 240
    214c:	80 80       	ld	r8, Z
    214e:	80 80       	ld	r8, Z
    2150:	80 80       	ld	r8, Z
    2152:	81 81       	ldd	r24, Z+1	; 0x01
    2154:	80 81       	ld	r24, Z
    2156:	80 7f       	andi	r24, 0xF0	; 240
    2158:	80 80       	ld	r8, Z
    215a:	80 80       	ld	r8, Z
    215c:	7f 80       	ldd	r7, Y+7	; 0x07
    215e:	80 80       	ld	r8, Z
    2160:	80 81       	ld	r24, Z
    2162:	80 80       	ld	r8, Z
    2164:	81 81       	ldd	r24, Z+1	; 0x01
    2166:	80 81       	ld	r24, Z
    2168:	7f 80       	ldd	r7, Y+7	; 0x07
    216a:	80 80       	ld	r8, Z
    216c:	80 80       	ld	r8, Z
    216e:	80 80       	ld	r8, Z
    2170:	80 80       	ld	r8, Z
    2172:	80 80       	ld	r8, Z
    2174:	80 7f       	andi	r24, 0xF0	; 240
    2176:	80 80       	ld	r8, Z
    2178:	80 80       	ld	r8, Z
    217a:	80 81       	ld	r24, Z
    217c:	80 80       	ld	r8, Z
    217e:	7f 80       	ldd	r7, Y+7	; 0x07
    2180:	80 80       	ld	r8, Z
    2182:	7e 7f       	andi	r23, 0xFE	; 254
    2184:	80 80       	ld	r8, Z
    2186:	81 81       	ldd	r24, Z+1	; 0x01
    2188:	81 80       	ldd	r8, Z+1	; 0x01
    218a:	80 80       	ld	r8, Z
    218c:	81 80       	ldd	r8, Z+1	; 0x01
    218e:	7f 7f       	andi	r23, 0xFF	; 255
    2190:	80 7f       	andi	r24, 0xF0	; 240
    2192:	7f 80       	ldd	r7, Y+7	; 0x07
    2194:	80 81       	ld	r24, Z
    2196:	81 81       	ldd	r24, Z+1	; 0x01
    2198:	80 80       	ld	r8, Z
    219a:	7f 80       	ldd	r7, Y+7	; 0x07
    219c:	80 7f       	andi	r24, 0xF0	; 240
    219e:	80 7f       	andi	r24, 0xF0	; 240
    21a0:	80 7f       	andi	r24, 0xF0	; 240
    21a2:	80 80       	ld	r8, Z
    21a4:	80 81       	ld	r24, Z
    21a6:	7f 80       	ldd	r7, Y+7	; 0x07
    21a8:	80 80       	ld	r8, Z
    21aa:	80 7f       	andi	r24, 0xF0	; 240
    21ac:	7f 80       	ldd	r7, Y+7	; 0x07
    21ae:	80 80       	ld	r8, Z
    21b0:	7f 7f       	andi	r23, 0xFF	; 255
    21b2:	80 80       	ld	r8, Z
    21b4:	80 80       	ld	r8, Z
    21b6:	80 80       	ld	r8, Z
    21b8:	80 81       	ld	r24, Z
    21ba:	80 7f       	andi	r24, 0xF0	; 240
    21bc:	7f 7f       	andi	r23, 0xFF	; 255
    21be:	80 7f       	andi	r24, 0xF0	; 240
    21c0:	80 81       	ld	r24, Z
    21c2:	80 81       	ld	r24, Z
    21c4:	80 80       	ld	r8, Z
    21c6:	80 80       	ld	r8, Z
    21c8:	80 80       	ld	r8, Z
    21ca:	7f 7f       	andi	r23, 0xFF	; 255
    21cc:	80 80       	ld	r8, Z
    21ce:	7f 80       	ldd	r7, Y+7	; 0x07
    21d0:	80 7f       	andi	r24, 0xF0	; 240
    21d2:	80 80       	ld	r8, Z
    21d4:	80 7f       	andi	r24, 0xF0	; 240
    21d6:	81 81       	ldd	r24, Z+1	; 0x01
    21d8:	80 80       	ld	r8, Z
    21da:	80 80       	ld	r8, Z
    21dc:	81 80       	ldd	r8, Z+1	; 0x01
    21de:	80 80       	ld	r8, Z
    21e0:	80 80       	ld	r8, Z
    21e2:	80 7f       	andi	r24, 0xF0	; 240
    21e4:	81 81       	ldd	r24, Z+1	; 0x01
    21e6:	7f 7f       	andi	r23, 0xFF	; 255
    21e8:	80 80       	ld	r8, Z
    21ea:	80 80       	ld	r8, Z
    21ec:	80 80       	ld	r8, Z
    21ee:	81 80       	ldd	r8, Z+1	; 0x01
    21f0:	80 80       	ld	r8, Z
    21f2:	81 80       	ldd	r8, Z+1	; 0x01
    21f4:	80 81       	ld	r24, Z
    21f6:	80 80       	ld	r8, Z
    21f8:	80 7f       	andi	r24, 0xF0	; 240
    21fa:	80 80       	ld	r8, Z
    21fc:	80 80       	ld	r8, Z
    21fe:	80 80       	ld	r8, Z
    2200:	81 7f       	andi	r24, 0xF1	; 241
    2202:	80 81       	ld	r24, Z
    2204:	80 7f       	andi	r24, 0xF0	; 240
    2206:	80 80       	ld	r8, Z
    2208:	80 80       	ld	r8, Z
    220a:	81 80       	ldd	r8, Z+1	; 0x01
    220c:	81 81       	ldd	r24, Z+1	; 0x01
    220e:	80 80       	ld	r8, Z
    2210:	80 80       	ld	r8, Z
    2212:	80 81       	ld	r24, Z
    2214:	80 80       	ld	r8, Z
    2216:	80 80       	ld	r8, Z
    2218:	80 80       	ld	r8, Z
    221a:	80 80       	ld	r8, Z
    221c:	80 80       	ld	r8, Z
    221e:	81 80       	ldd	r8, Z+1	; 0x01
    2220:	7f 80       	ldd	r7, Y+7	; 0x07
    2222:	7f 7f       	andi	r23, 0xFF	; 255
    2224:	7f 80       	ldd	r7, Y+7	; 0x07
    2226:	80 80       	ld	r8, Z
    2228:	80 80       	ld	r8, Z
    222a:	80 80       	ld	r8, Z
    222c:	80 80       	ld	r8, Z
    222e:	80 80       	ld	r8, Z
    2230:	81 80       	ldd	r8, Z+1	; 0x01
    2232:	80 80       	ld	r8, Z
    2234:	80 81       	ld	r24, Z
    2236:	7f 81       	ldd	r23, Y+7	; 0x07
    2238:	80 80       	ld	r8, Z
    223a:	80 80       	ld	r8, Z
    223c:	80 80       	ld	r8, Z
    223e:	80 80       	ld	r8, Z
    2240:	80 80       	ld	r8, Z
    2242:	81 80       	ldd	r8, Z+1	; 0x01
    2244:	7f 80       	ldd	r7, Y+7	; 0x07
    2246:	81 80       	ldd	r8, Z+1	; 0x01
    2248:	80 80       	ld	r8, Z
    224a:	80 80       	ld	r8, Z
    224c:	80 80       	ld	r8, Z
    224e:	80 80       	ld	r8, Z
    2250:	80 80       	ld	r8, Z
    2252:	81 80       	ldd	r8, Z+1	; 0x01
    2254:	80 7f       	andi	r24, 0xF0	; 240
    2256:	80 80       	ld	r8, Z
    2258:	7f 80       	ldd	r7, Y+7	; 0x07
    225a:	80 80       	ld	r8, Z
    225c:	81 80       	ldd	r8, Z+1	; 0x01
    225e:	81 80       	ldd	r8, Z+1	; 0x01
    2260:	80 80       	ld	r8, Z
    2262:	7f 7f       	andi	r23, 0xFF	; 255
    2264:	7f 7f       	andi	r23, 0xFF	; 255
    2266:	7f 80       	ldd	r7, Y+7	; 0x07
    2268:	80 81       	ld	r24, Z
    226a:	81 80       	ldd	r8, Z+1	; 0x01
    226c:	80 81       	ld	r24, Z
    226e:	80 80       	ld	r8, Z
    2270:	80 80       	ld	r8, Z
    2272:	7f 80       	ldd	r7, Y+7	; 0x07
    2274:	80 7f       	andi	r24, 0xF0	; 240
    2276:	80 7f       	andi	r24, 0xF0	; 240
    2278:	81 80       	ldd	r8, Z+1	; 0x01
    227a:	80 81       	ld	r24, Z
    227c:	81 80       	ldd	r8, Z+1	; 0x01
    227e:	80 80       	ld	r8, Z
    2280:	80 80       	ld	r8, Z
    2282:	80 7f       	andi	r24, 0xF0	; 240
    2284:	7f 80       	ldd	r7, Y+7	; 0x07
    2286:	80 81       	ld	r24, Z
    2288:	80 80       	ld	r8, Z
    228a:	80 80       	ld	r8, Z
    228c:	80 80       	ld	r8, Z
    228e:	80 7f       	andi	r24, 0xF0	; 240
    2290:	80 80       	ld	r8, Z
    2292:	80 80       	ld	r8, Z
    2294:	80 80       	ld	r8, Z
    2296:	80 80       	ld	r8, Z
    2298:	80 7f       	andi	r24, 0xF0	; 240
    229a:	7f 80       	ldd	r7, Y+7	; 0x07
    229c:	7f 7f       	andi	r23, 0xFF	; 255
    229e:	80 80       	ld	r8, Z
    22a0:	7f 81       	ldd	r23, Y+7	; 0x07
    22a2:	81 81       	ldd	r24, Z+1	; 0x01
    22a4:	80 80       	ld	r8, Z
    22a6:	80 80       	ld	r8, Z
    22a8:	7f 80       	ldd	r7, Y+7	; 0x07
    22aa:	81 80       	ldd	r8, Z+1	; 0x01
    22ac:	80 80       	ld	r8, Z
    22ae:	80 80       	ld	r8, Z
    22b0:	80 80       	ld	r8, Z
    22b2:	80 80       	ld	r8, Z
    22b4:	7f 80       	ldd	r7, Y+7	; 0x07
    22b6:	7f 81       	ldd	r23, Y+7	; 0x07
    22b8:	80 7f       	andi	r24, 0xF0	; 240
    22ba:	81 80       	ldd	r8, Z+1	; 0x01
    22bc:	81 81       	ldd	r24, Z+1	; 0x01
    22be:	80 81       	ld	r24, Z
    22c0:	81 80       	ldd	r8, Z+1	; 0x01
    22c2:	80 7f       	andi	r24, 0xF0	; 240
    22c4:	80 80       	ld	r8, Z
    22c6:	80 80       	ld	r8, Z
    22c8:	81 80       	ldd	r8, Z+1	; 0x01
    22ca:	7f 81       	ldd	r23, Y+7	; 0x07
    22cc:	81 81       	ldd	r24, Z+1	; 0x01
    22ce:	80 80       	ld	r8, Z
    22d0:	80 7f       	andi	r24, 0xF0	; 240
    22d2:	80 81       	ld	r24, Z
    22d4:	7f 80       	ldd	r7, Y+7	; 0x07
    22d6:	80 80       	ld	r8, Z
    22d8:	80 80       	ld	r8, Z
    22da:	80 7f       	andi	r24, 0xF0	; 240
    22dc:	81 7f       	andi	r24, 0xF1	; 241
    22de:	80 80       	ld	r8, Z
    22e0:	80 80       	ld	r8, Z
    22e2:	80 80       	ld	r8, Z
    22e4:	80 80       	ld	r8, Z
    22e6:	80 80       	ld	r8, Z
    22e8:	80 80       	ld	r8, Z
    22ea:	7f 81       	ldd	r23, Y+7	; 0x07
    22ec:	80 80       	ld	r8, Z
    22ee:	80 7f       	andi	r24, 0xF0	; 240
    22f0:	81 7f       	andi	r24, 0xF1	; 241
    22f2:	80 80       	ld	r8, Z
    22f4:	7f 7f       	andi	r23, 0xFF	; 255
    22f6:	80 81       	ld	r24, Z
    22f8:	80 81       	ld	r24, Z
    22fa:	80 7f       	andi	r24, 0xF0	; 240
    22fc:	7f 80       	ldd	r7, Y+7	; 0x07
    22fe:	81 80       	ldd	r8, Z+1	; 0x01
    2300:	80 80       	ld	r8, Z
    2302:	80 80       	ld	r8, Z
    2304:	7f 80       	ldd	r7, Y+7	; 0x07
    2306:	80 81       	ld	r24, Z
    2308:	80 80       	ld	r8, Z
    230a:	80 80       	ld	r8, Z
    230c:	7f 80       	ldd	r7, Y+7	; 0x07
    230e:	80 80       	ld	r8, Z
    2310:	80 80       	ld	r8, Z
    2312:	81 81       	ldd	r24, Z+1	; 0x01
    2314:	80 80       	ld	r8, Z
    2316:	7f 80       	ldd	r7, Y+7	; 0x07
    2318:	80 80       	ld	r8, Z
    231a:	80 7f       	andi	r24, 0xF0	; 240
    231c:	80 7f       	andi	r24, 0xF0	; 240
    231e:	7f 80       	ldd	r7, Y+7	; 0x07
    2320:	80 80       	ld	r8, Z
    2322:	80 80       	ld	r8, Z
    2324:	81 81       	ldd	r24, Z+1	; 0x01
    2326:	80 80       	ld	r8, Z
    2328:	80 80       	ld	r8, Z
    232a:	80 80       	ld	r8, Z
    232c:	80 80       	ld	r8, Z
    232e:	80 81       	ld	r24, Z
    2330:	80 80       	ld	r8, Z
    2332:	80 80       	ld	r8, Z
    2334:	80 80       	ld	r8, Z
    2336:	81 80       	ldd	r8, Z+1	; 0x01
    2338:	81 80       	ldd	r8, Z+1	; 0x01
    233a:	80 81       	ld	r24, Z
    233c:	81 80       	ldd	r8, Z+1	; 0x01
    233e:	80 80       	ld	r8, Z
    2340:	80 80       	ld	r8, Z
    2342:	80 80       	ld	r8, Z
    2344:	80 80       	ld	r8, Z
    2346:	80 81       	ld	r24, Z
    2348:	80 80       	ld	r8, Z
    234a:	80 80       	ld	r8, Z
    234c:	7f 80       	ldd	r7, Y+7	; 0x07
    234e:	80 80       	ld	r8, Z
    2350:	80 80       	ld	r8, Z
    2352:	80 81       	ld	r24, Z
    2354:	80 80       	ld	r8, Z
    2356:	80 7f       	andi	r24, 0xF0	; 240
    2358:	80 80       	ld	r8, Z
    235a:	80 81       	ld	r24, Z
    235c:	80 81       	ld	r24, Z
    235e:	80 80       	ld	r8, Z
    2360:	80 80       	ld	r8, Z
    2362:	80 80       	ld	r8, Z
    2364:	80 80       	ld	r8, Z
    2366:	80 81       	ld	r24, Z
    2368:	80 80       	ld	r8, Z
    236a:	7f 80       	ldd	r7, Y+7	; 0x07
    236c:	80 80       	ld	r8, Z
    236e:	80 80       	ld	r8, Z
    2370:	80 80       	ld	r8, Z
    2372:	80 80       	ld	r8, Z
    2374:	80 80       	ld	r8, Z
    2376:	80 80       	ld	r8, Z
    2378:	80 80       	ld	r8, Z
    237a:	80 81       	ld	r24, Z
    237c:	80 7f       	andi	r24, 0xF0	; 240
    237e:	80 7f       	andi	r24, 0xF0	; 240
    2380:	80 7f       	andi	r24, 0xF0	; 240
    2382:	80 81       	ld	r24, Z
    2384:	80 80       	ld	r8, Z
    2386:	80 80       	ld	r8, Z
    2388:	80 80       	ld	r8, Z
    238a:	80 80       	ld	r8, Z
    238c:	80 80       	ld	r8, Z
    238e:	80 80       	ld	r8, Z
    2390:	80 80       	ld	r8, Z
    2392:	80 80       	ld	r8, Z
    2394:	80 80       	ld	r8, Z
    2396:	80 80       	ld	r8, Z
    2398:	80 80       	ld	r8, Z
    239a:	80 7f       	andi	r24, 0xF0	; 240
    239c:	80 80       	ld	r8, Z
    239e:	80 80       	ld	r8, Z
    23a0:	80 80       	ld	r8, Z
    23a2:	80 7f       	andi	r24, 0xF0	; 240
    23a4:	81 80       	ldd	r8, Z+1	; 0x01
    23a6:	81 80       	ldd	r8, Z+1	; 0x01
    23a8:	80 7f       	andi	r24, 0xF0	; 240
    23aa:	81 80       	ldd	r8, Z+1	; 0x01
    23ac:	81 80       	ldd	r8, Z+1	; 0x01
    23ae:	80 80       	ld	r8, Z
    23b0:	80 80       	ld	r8, Z
    23b2:	80 80       	ld	r8, Z
    23b4:	80 7f       	andi	r24, 0xF0	; 240
    23b6:	80 80       	ld	r8, Z
    23b8:	81 80       	ldd	r8, Z+1	; 0x01
    23ba:	80 80       	ld	r8, Z
    23bc:	80 80       	ld	r8, Z
    23be:	7f 80       	ldd	r7, Y+7	; 0x07
    23c0:	80 80       	ld	r8, Z
    23c2:	81 80       	ldd	r8, Z+1	; 0x01
    23c4:	80 80       	ld	r8, Z
    23c6:	80 80       	ld	r8, Z
    23c8:	80 80       	ld	r8, Z
    23ca:	81 80       	ldd	r8, Z+1	; 0x01
    23cc:	80 80       	ld	r8, Z
    23ce:	80 80       	ld	r8, Z
    23d0:	7f 80       	ldd	r7, Y+7	; 0x07
    23d2:	80 80       	ld	r8, Z
    23d4:	80 81       	ld	r24, Z
    23d6:	80 7f       	andi	r24, 0xF0	; 240
    23d8:	80 80       	ld	r8, Z
    23da:	80 80       	ld	r8, Z
    23dc:	80 80       	ld	r8, Z
    23de:	80 80       	ld	r8, Z
    23e0:	80 81       	ld	r24, Z
    23e2:	80 80       	ld	r8, Z
    23e4:	80 80       	ld	r8, Z
    23e6:	7f 80       	ldd	r7, Y+7	; 0x07
    23e8:	80 80       	ld	r8, Z
    23ea:	80 80       	ld	r8, Z
    23ec:	80 80       	ld	r8, Z
    23ee:	80 80       	ld	r8, Z
    23f0:	80 80       	ld	r8, Z
    23f2:	80 80       	ld	r8, Z
    23f4:	80 7f       	andi	r24, 0xF0	; 240
    23f6:	80 80       	ld	r8, Z
    23f8:	7f 80       	ldd	r7, Y+7	; 0x07
    23fa:	80 80       	ld	r8, Z
    23fc:	80 80       	ld	r8, Z
    23fe:	80 81       	ld	r24, Z
    2400:	80 80       	ld	r8, Z
    2402:	80 80       	ld	r8, Z
    2404:	80 80       	ld	r8, Z
    2406:	80 80       	ld	r8, Z
    2408:	80 7f       	andi	r24, 0xF0	; 240
    240a:	80 80       	ld	r8, Z
    240c:	80 80       	ld	r8, Z
    240e:	80 80       	ld	r8, Z
    2410:	80 81       	ld	r24, Z
    2412:	80 80       	ld	r8, Z
    2414:	80 80       	ld	r8, Z
    2416:	80 7f       	andi	r24, 0xF0	; 240
    2418:	80 80       	ld	r8, Z
    241a:	81 80       	ldd	r8, Z+1	; 0x01
    241c:	80 80       	ld	r8, Z
    241e:	7f 80       	ldd	r7, Y+7	; 0x07
    2420:	80 80       	ld	r8, Z
    2422:	81 80       	ldd	r8, Z+1	; 0x01
    2424:	81 80       	ldd	r8, Z+1	; 0x01
    2426:	81 81       	ldd	r24, Z+1	; 0x01
    2428:	80 7f       	andi	r24, 0xF0	; 240
    242a:	80 80       	ld	r8, Z
    242c:	80 80       	ld	r8, Z
    242e:	80 80       	ld	r8, Z
    2430:	80 80       	ld	r8, Z
    2432:	80 80       	ld	r8, Z
    2434:	80 7f       	andi	r24, 0xF0	; 240
    2436:	80 81       	ld	r24, Z
    2438:	80 7f       	andi	r24, 0xF0	; 240
    243a:	81 80       	ldd	r8, Z+1	; 0x01
    243c:	80 80       	ld	r8, Z
    243e:	7f 7f       	andi	r23, 0xFF	; 255
    2440:	80 7f       	andi	r24, 0xF0	; 240
    2442:	80 81       	ld	r24, Z
    2444:	7f 7f       	andi	r23, 0xFF	; 255
    2446:	80 80       	ld	r8, Z
    2448:	80 7f       	andi	r24, 0xF0	; 240
    244a:	80 80       	ld	r8, Z
    244c:	80 80       	ld	r8, Z
    244e:	80 80       	ld	r8, Z
    2450:	80 7f       	andi	r24, 0xF0	; 240
    2452:	80 80       	ld	r8, Z
    2454:	80 80       	ld	r8, Z
    2456:	80 80       	ld	r8, Z
    2458:	80 80       	ld	r8, Z
    245a:	81 80       	ldd	r8, Z+1	; 0x01
    245c:	81 80       	ldd	r8, Z+1	; 0x01
    245e:	80 80       	ld	r8, Z
    2460:	7f 80       	ldd	r7, Y+7	; 0x07
    2462:	80 80       	ld	r8, Z
    2464:	80 80       	ld	r8, Z
    2466:	80 80       	ld	r8, Z
    2468:	80 80       	ld	r8, Z
    246a:	80 81       	ld	r24, Z
    246c:	80 80       	ld	r8, Z
    246e:	80 80       	ld	r8, Z
    2470:	80 80       	ld	r8, Z
    2472:	7f 80       	ldd	r7, Y+7	; 0x07
    2474:	80 80       	ld	r8, Z
    2476:	80 7f       	andi	r24, 0xF0	; 240
    2478:	80 80       	ld	r8, Z
    247a:	80 80       	ld	r8, Z
    247c:	81 7f       	andi	r24, 0xF1	; 241
    247e:	80 7f       	andi	r24, 0xF0	; 240
    2480:	80 7f       	andi	r24, 0xF0	; 240
    2482:	80 80       	ld	r8, Z
    2484:	7f 80       	ldd	r7, Y+7	; 0x07
    2486:	80 80       	ld	r8, Z
    2488:	7f 80       	ldd	r7, Y+7	; 0x07
    248a:	80 7f       	andi	r24, 0xF0	; 240
    248c:	80 80       	ld	r8, Z
    248e:	80 80       	ld	r8, Z
    2490:	7f 80       	ldd	r7, Y+7	; 0x07
    2492:	80 80       	ld	r8, Z
    2494:	80 80       	ld	r8, Z
    2496:	80 80       	ld	r8, Z
    2498:	81 81       	ldd	r24, Z+1	; 0x01
    249a:	80 81       	ld	r24, Z
    249c:	80 80       	ld	r8, Z
    249e:	80 80       	ld	r8, Z
    24a0:	80 80       	ld	r8, Z
    24a2:	7f 80       	ldd	r7, Y+7	; 0x07
    24a4:	80 80       	ld	r8, Z
    24a6:	7f 7f       	andi	r23, 0xFF	; 255
    24a8:	81 80       	ldd	r8, Z+1	; 0x01
    24aa:	80 7f       	andi	r24, 0xF0	; 240
    24ac:	80 80       	ld	r8, Z
    24ae:	80 80       	ld	r8, Z
    24b0:	80 81       	ld	r24, Z
    24b2:	7f 7f       	andi	r23, 0xFF	; 255
    24b4:	80 80       	ld	r8, Z
    24b6:	81 80       	ldd	r8, Z+1	; 0x01
    24b8:	80 80       	ld	r8, Z
    24ba:	7f 81       	ldd	r23, Y+7	; 0x07
    24bc:	80 80       	ld	r8, Z
    24be:	80 80       	ld	r8, Z
    24c0:	80 81       	ld	r24, Z
    24c2:	80 80       	ld	r8, Z
    24c4:	80 80       	ld	r8, Z
    24c6:	80 80       	ld	r8, Z
    24c8:	80 80       	ld	r8, Z
    24ca:	80 80       	ld	r8, Z
    24cc:	7f 80       	ldd	r7, Y+7	; 0x07
    24ce:	81 80       	ldd	r8, Z+1	; 0x01
    24d0:	80 80       	ld	r8, Z
    24d2:	81 80       	ldd	r8, Z+1	; 0x01
    24d4:	80 80       	ld	r8, Z
    24d6:	80 80       	ld	r8, Z
    24d8:	7f 80       	ldd	r7, Y+7	; 0x07
    24da:	80 80       	ld	r8, Z
    24dc:	80 80       	ld	r8, Z
    24de:	7f 80       	ldd	r7, Y+7	; 0x07
    24e0:	80 81       	ld	r24, Z
    24e2:	80 80       	ld	r8, Z
    24e4:	7f 80       	ldd	r7, Y+7	; 0x07
    24e6:	7f 80       	ldd	r7, Y+7	; 0x07
    24e8:	80 80       	ld	r8, Z
    24ea:	7f 80       	ldd	r7, Y+7	; 0x07
    24ec:	81 80       	ldd	r8, Z+1	; 0x01
    24ee:	80 80       	ld	r8, Z
    24f0:	80 80       	ld	r8, Z
    24f2:	7f 80       	ldd	r7, Y+7	; 0x07
    24f4:	7f 80       	ldd	r7, Y+7	; 0x07
    24f6:	80 80       	ld	r8, Z
    24f8:	80 80       	ld	r8, Z
    24fa:	80 80       	ld	r8, Z
    24fc:	81 80       	ldd	r8, Z+1	; 0x01
    24fe:	80 7f       	andi	r24, 0xF0	; 240
    2500:	80 7f       	andi	r24, 0xF0	; 240
    2502:	80 80       	ld	r8, Z
    2504:	80 80       	ld	r8, Z
    2506:	80 81       	ld	r24, Z
    2508:	80 80       	ld	r8, Z
    250a:	80 80       	ld	r8, Z
    250c:	7f 80       	ldd	r7, Y+7	; 0x07
    250e:	81 80       	ldd	r8, Z+1	; 0x01
    2510:	81 80       	ldd	r8, Z+1	; 0x01
    2512:	80 80       	ld	r8, Z
    2514:	80 80       	ld	r8, Z
    2516:	80 80       	ld	r8, Z
    2518:	80 80       	ld	r8, Z
    251a:	80 7f       	andi	r24, 0xF0	; 240
    251c:	80 7f       	andi	r24, 0xF0	; 240
    251e:	80 80       	ld	r8, Z
    2520:	80 80       	ld	r8, Z
    2522:	80 80       	ld	r8, Z
    2524:	80 80       	ld	r8, Z
    2526:	80 81       	ld	r24, Z
    2528:	80 80       	ld	r8, Z
    252a:	80 81       	ld	r24, Z
    252c:	80 80       	ld	r8, Z
    252e:	81 80       	ldd	r8, Z+1	; 0x01
    2530:	81 7f       	andi	r24, 0xF1	; 241
    2532:	80 80       	ld	r8, Z
    2534:	80 80       	ld	r8, Z
    2536:	80 80       	ld	r8, Z
    2538:	80 81       	ld	r24, Z
    253a:	80 81       	ld	r24, Z
    253c:	80 7f       	andi	r24, 0xF0	; 240
    253e:	80 80       	ld	r8, Z
    2540:	80 80       	ld	r8, Z
    2542:	80 80       	ld	r8, Z
    2544:	81 7f       	andi	r24, 0xF1	; 241
    2546:	80 80       	ld	r8, Z
    2548:	80 81       	ld	r24, Z
    254a:	80 80       	ld	r8, Z
    254c:	80 80       	ld	r8, Z
    254e:	7f 7f       	andi	r23, 0xFF	; 255
    2550:	80 80       	ld	r8, Z
    2552:	81 7f       	andi	r24, 0xF1	; 241
    2554:	80 81       	ld	r24, Z
    2556:	81 81       	ldd	r24, Z+1	; 0x01
    2558:	80 80       	ld	r8, Z
    255a:	80 80       	ld	r8, Z
    255c:	80 81       	ld	r24, Z
    255e:	7f 81       	ldd	r23, Y+7	; 0x07
    2560:	80 80       	ld	r8, Z
    2562:	80 81       	ld	r24, Z
    2564:	80 81       	ld	r24, Z
    2566:	81 80       	ldd	r8, Z+1	; 0x01
    2568:	80 80       	ld	r8, Z
    256a:	80 80       	ld	r8, Z
    256c:	81 80       	ldd	r8, Z+1	; 0x01
    256e:	80 80       	ld	r8, Z
    2570:	80 80       	ld	r8, Z
    2572:	80 80       	ld	r8, Z
    2574:	80 80       	ld	r8, Z
    2576:	80 80       	ld	r8, Z
    2578:	80 7f       	andi	r24, 0xF0	; 240
    257a:	80 80       	ld	r8, Z
    257c:	80 80       	ld	r8, Z
    257e:	80 7f       	andi	r24, 0xF0	; 240
    2580:	80 80       	ld	r8, Z
    2582:	80 80       	ld	r8, Z
    2584:	81 80       	ldd	r8, Z+1	; 0x01
    2586:	80 80       	ld	r8, Z
    2588:	80 81       	ld	r24, Z
    258a:	80 81       	ld	r24, Z
    258c:	80 7f       	andi	r24, 0xF0	; 240
    258e:	7f 81       	ldd	r23, Y+7	; 0x07
    2590:	80 80       	ld	r8, Z
    2592:	80 80       	ld	r8, Z
    2594:	80 80       	ld	r8, Z
    2596:	7f 80       	ldd	r7, Y+7	; 0x07
    2598:	80 80       	ld	r8, Z
    259a:	80 7f       	andi	r24, 0xF0	; 240
    259c:	80 80       	ld	r8, Z
    259e:	80 80       	ld	r8, Z
    25a0:	81 81       	ldd	r24, Z+1	; 0x01
    25a2:	80 80       	ld	r8, Z
    25a4:	80 81       	ld	r24, Z
    25a6:	80 80       	ld	r8, Z
    25a8:	80 7f       	andi	r24, 0xF0	; 240
    25aa:	80 7f       	andi	r24, 0xF0	; 240
    25ac:	80 80       	ld	r8, Z
    25ae:	80 80       	ld	r8, Z
    25b0:	80 80       	ld	r8, Z
    25b2:	80 80       	ld	r8, Z
    25b4:	7f 80       	ldd	r7, Y+7	; 0x07
    25b6:	7f 80       	ldd	r7, Y+7	; 0x07
    25b8:	7f 80       	ldd	r7, Y+7	; 0x07
    25ba:	80 80       	ld	r8, Z
    25bc:	80 81       	ld	r24, Z
    25be:	80 80       	ld	r8, Z
    25c0:	81 80       	ldd	r8, Z+1	; 0x01
    25c2:	7f 80       	ldd	r7, Y+7	; 0x07
    25c4:	80 80       	ld	r8, Z
    25c6:	80 80       	ld	r8, Z
    25c8:	80 7f       	andi	r24, 0xF0	; 240
    25ca:	80 80       	ld	r8, Z
    25cc:	80 80       	ld	r8, Z
    25ce:	80 7f       	andi	r24, 0xF0	; 240
    25d0:	81 80       	ldd	r8, Z+1	; 0x01
    25d2:	80 80       	ld	r8, Z
    25d4:	80 80       	ld	r8, Z
    25d6:	80 80       	ld	r8, Z
    25d8:	80 80       	ld	r8, Z
    25da:	80 80       	ld	r8, Z
    25dc:	80 80       	ld	r8, Z
    25de:	81 80       	ldd	r8, Z+1	; 0x01
    25e0:	7f 80       	ldd	r7, Y+7	; 0x07
    25e2:	7f 80       	ldd	r7, Y+7	; 0x07
    25e4:	80 80       	ld	r8, Z
    25e6:	80 80       	ld	r8, Z
    25e8:	80 80       	ld	r8, Z
    25ea:	80 80       	ld	r8, Z
    25ec:	80 80       	ld	r8, Z
    25ee:	80 7f       	andi	r24, 0xF0	; 240
    25f0:	80 80       	ld	r8, Z
    25f2:	80 80       	ld	r8, Z
    25f4:	80 80       	ld	r8, Z
    25f6:	80 80       	ld	r8, Z
    25f8:	7f 80       	ldd	r7, Y+7	; 0x07
    25fa:	80 80       	ld	r8, Z
    25fc:	80 80       	ld	r8, Z
    25fe:	80 80       	ld	r8, Z
    2600:	7f 80       	ldd	r7, Y+7	; 0x07
    2602:	80 80       	ld	r8, Z
    2604:	80 80       	ld	r8, Z
    2606:	80 81       	ld	r24, Z
    2608:	80 80       	ld	r8, Z
    260a:	80 80       	ld	r8, Z
    260c:	80 80       	ld	r8, Z
    260e:	80 81       	ld	r24, Z
    2610:	80 81       	ld	r24, Z
    2612:	7f 80       	ldd	r7, Y+7	; 0x07
    2614:	81 80       	ldd	r8, Z+1	; 0x01
    2616:	80 80       	ld	r8, Z
    2618:	81 80       	ldd	r8, Z+1	; 0x01
    261a:	80 7f       	andi	r24, 0xF0	; 240
    261c:	80 81       	ld	r24, Z
    261e:	80 80       	ld	r8, Z
    2620:	80 81       	ld	r24, Z
    2622:	7f 80       	ldd	r7, Y+7	; 0x07
    2624:	80 80       	ld	r8, Z
    2626:	80 80       	ld	r8, Z
    2628:	80 80       	ld	r8, Z
    262a:	80 80       	ld	r8, Z
    262c:	81 80       	ldd	r8, Z+1	; 0x01
    262e:	80 80       	ld	r8, Z
    2630:	80 7f       	andi	r24, 0xF0	; 240
    2632:	80 80       	ld	r8, Z
    2634:	7f 80       	ldd	r7, Y+7	; 0x07
    2636:	80 80       	ld	r8, Z
    2638:	80 80       	ld	r8, Z
    263a:	80 80       	ld	r8, Z
    263c:	80 80       	ld	r8, Z
    263e:	80 80       	ld	r8, Z
    2640:	80 80       	ld	r8, Z
    2642:	7f 80       	ldd	r7, Y+7	; 0x07
    2644:	81 80       	ldd	r8, Z+1	; 0x01
    2646:	80 80       	ld	r8, Z
    2648:	7f 7f       	andi	r23, 0xFF	; 255
    264a:	80 81       	ld	r24, Z
    264c:	80 81       	ld	r24, Z
    264e:	80 80       	ld	r8, Z
    2650:	80 80       	ld	r8, Z
    2652:	7f 80       	ldd	r7, Y+7	; 0x07
    2654:	7f 81       	ldd	r23, Y+7	; 0x07
    2656:	7f 80       	ldd	r7, Y+7	; 0x07
    2658:	81 7f       	andi	r24, 0xF1	; 241
    265a:	7f 80       	ldd	r7, Y+7	; 0x07
    265c:	80 80       	ld	r8, Z
    265e:	80 80       	ld	r8, Z
    2660:	80 80       	ld	r8, Z
    2662:	7f 80       	ldd	r7, Y+7	; 0x07
    2664:	80 7f       	andi	r24, 0xF0	; 240
    2666:	7f 80       	ldd	r7, Y+7	; 0x07
    2668:	80 80       	ld	r8, Z
    266a:	80 80       	ld	r8, Z
    266c:	7f 80       	ldd	r7, Y+7	; 0x07
    266e:	80 80       	ld	r8, Z
    2670:	80 80       	ld	r8, Z
    2672:	80 7f       	andi	r24, 0xF0	; 240
    2674:	81 81       	ldd	r24, Z+1	; 0x01
    2676:	80 80       	ld	r8, Z
    2678:	80 80       	ld	r8, Z
    267a:	81 80       	ldd	r8, Z+1	; 0x01
    267c:	80 80       	ld	r8, Z
    267e:	80 7f       	andi	r24, 0xF0	; 240
    2680:	80 80       	ld	r8, Z
    2682:	80 80       	ld	r8, Z
    2684:	80 7f       	andi	r24, 0xF0	; 240
    2686:	80 80       	ld	r8, Z
    2688:	80 81       	ld	r24, Z
    268a:	81 7f       	andi	r24, 0xF1	; 241
    268c:	80 80       	ld	r8, Z
    268e:	80 81       	ld	r24, Z
    2690:	80 80       	ld	r8, Z
    2692:	81 7f       	andi	r24, 0xF1	; 241
    2694:	81 80       	ldd	r8, Z+1	; 0x01
    2696:	80 80       	ld	r8, Z
    2698:	80 80       	ld	r8, Z
    269a:	80 81       	ld	r24, Z
    269c:	7f 7f       	andi	r23, 0xFF	; 255
    269e:	80 80       	ld	r8, Z
    26a0:	80 80       	ld	r8, Z
    26a2:	80 81       	ld	r24, Z
    26a4:	80 80       	ld	r8, Z
    26a6:	80 80       	ld	r8, Z
    26a8:	80 80       	ld	r8, Z
    26aa:	80 80       	ld	r8, Z
    26ac:	80 80       	ld	r8, Z
    26ae:	80 80       	ld	r8, Z
    26b0:	80 7f       	andi	r24, 0xF0	; 240
    26b2:	80 80       	ld	r8, Z
    26b4:	80 7f       	andi	r24, 0xF0	; 240
    26b6:	7f 80       	ldd	r7, Y+7	; 0x07
    26b8:	80 80       	ld	r8, Z
    26ba:	80 80       	ld	r8, Z
    26bc:	81 80       	ldd	r8, Z+1	; 0x01
    26be:	7f 80       	ldd	r7, Y+7	; 0x07
    26c0:	80 80       	ld	r8, Z
    26c2:	81 80       	ldd	r8, Z+1	; 0x01
    26c4:	80 81       	ld	r24, Z
    26c6:	80 80       	ld	r8, Z
    26c8:	81 80       	ldd	r8, Z+1	; 0x01
    26ca:	80 7f       	andi	r24, 0xF0	; 240
    26cc:	80 80       	ld	r8, Z
    26ce:	80 7f       	andi	r24, 0xF0	; 240
    26d0:	80 81       	ld	r24, Z
    26d2:	80 80       	ld	r8, Z
    26d4:	80 7f       	andi	r24, 0xF0	; 240
    26d6:	80 80       	ld	r8, Z
    26d8:	80 80       	ld	r8, Z
    26da:	80 80       	ld	r8, Z
    26dc:	81 80       	ldd	r8, Z+1	; 0x01
    26de:	80 80       	ld	r8, Z
    26e0:	80 80       	ld	r8, Z
    26e2:	80 80       	ld	r8, Z
    26e4:	80 80       	ld	r8, Z
    26e6:	80 7f       	andi	r24, 0xF0	; 240
    26e8:	80 80       	ld	r8, Z
    26ea:	80 80       	ld	r8, Z
    26ec:	80 80       	ld	r8, Z
    26ee:	80 80       	ld	r8, Z
    26f0:	80 80       	ld	r8, Z
    26f2:	80 80       	ld	r8, Z
    26f4:	7f 80       	ldd	r7, Y+7	; 0x07
    26f6:	7f 80       	ldd	r7, Y+7	; 0x07
    26f8:	80 80       	ld	r8, Z
    26fa:	80 80       	ld	r8, Z
    26fc:	80 80       	ld	r8, Z
    26fe:	80 81       	ld	r24, Z
    2700:	80 80       	ld	r8, Z
    2702:	80 7f       	andi	r24, 0xF0	; 240
    2704:	80 80       	ld	r8, Z
    2706:	80 81       	ld	r24, Z
    2708:	80 80       	ld	r8, Z
    270a:	80 81       	ld	r24, Z
    270c:	80 80       	ld	r8, Z
    270e:	80 80       	ld	r8, Z
    2710:	81 80       	ldd	r8, Z+1	; 0x01
    2712:	7f 80       	ldd	r7, Y+7	; 0x07
    2714:	80 7f       	andi	r24, 0xF0	; 240
    2716:	80 80       	ld	r8, Z
    2718:	81 7f       	andi	r24, 0xF1	; 241
    271a:	81 81       	ldd	r24, Z+1	; 0x01
    271c:	80 80       	ld	r8, Z
    271e:	80 80       	ld	r8, Z
    2720:	81 80       	ldd	r8, Z+1	; 0x01
    2722:	80 80       	ld	r8, Z
    2724:	80 81       	ld	r24, Z
    2726:	80 80       	ld	r8, Z
    2728:	80 80       	ld	r8, Z
    272a:	80 80       	ld	r8, Z
    272c:	80 7f       	andi	r24, 0xF0	; 240
    272e:	80 80       	ld	r8, Z
    2730:	80 80       	ld	r8, Z
    2732:	81 80       	ldd	r8, Z+1	; 0x01
    2734:	7f 80       	ldd	r7, Y+7	; 0x07
    2736:	80 80       	ld	r8, Z
    2738:	80 80       	ld	r8, Z
    273a:	80 80       	ld	r8, Z
    273c:	80 80       	ld	r8, Z
    273e:	80 81       	ld	r24, Z
    2740:	80 80       	ld	r8, Z
    2742:	7f 81       	ldd	r23, Y+7	; 0x07
    2744:	81 80       	ldd	r8, Z+1	; 0x01
    2746:	80 80       	ld	r8, Z
    2748:	80 80       	ld	r8, Z
    274a:	81 80       	ldd	r8, Z+1	; 0x01
    274c:	80 80       	ld	r8, Z
    274e:	80 80       	ld	r8, Z
    2750:	81 80       	ldd	r8, Z+1	; 0x01
    2752:	80 80       	ld	r8, Z
    2754:	80 80       	ld	r8, Z
    2756:	81 81       	ldd	r24, Z+1	; 0x01
    2758:	80 7f       	andi	r24, 0xF0	; 240
    275a:	80 80       	ld	r8, Z
    275c:	7f 80       	ldd	r7, Y+7	; 0x07
    275e:	81 80       	ldd	r8, Z+1	; 0x01
    2760:	80 80       	ld	r8, Z
    2762:	80 80       	ld	r8, Z
    2764:	80 80       	ld	r8, Z
    2766:	80 80       	ld	r8, Z
    2768:	80 80       	ld	r8, Z
    276a:	80 81       	ld	r24, Z
    276c:	80 80       	ld	r8, Z
    276e:	7f 80       	ldd	r7, Y+7	; 0x07
    2770:	80 80       	ld	r8, Z
    2772:	81 81       	ldd	r24, Z+1	; 0x01
    2774:	80 80       	ld	r8, Z
    2776:	80 7f       	andi	r24, 0xF0	; 240
    2778:	80 81       	ld	r24, Z
    277a:	81 7f       	andi	r24, 0xF1	; 241
    277c:	80 80       	ld	r8, Z
    277e:	80 80       	ld	r8, Z
    2780:	80 81       	ld	r24, Z
    2782:	80 80       	ld	r8, Z
    2784:	81 81       	ldd	r24, Z+1	; 0x01
    2786:	80 80       	ld	r8, Z
    2788:	80 80       	ld	r8, Z
    278a:	81 80       	ldd	r8, Z+1	; 0x01
    278c:	80 80       	ld	r8, Z
    278e:	80 80       	ld	r8, Z
    2790:	80 7f       	andi	r24, 0xF0	; 240
    2792:	80 81       	ld	r24, Z
    2794:	80 80       	ld	r8, Z
    2796:	80 7f       	andi	r24, 0xF0	; 240
    2798:	7f 7f       	andi	r23, 0xFF	; 255
    279a:	80 81       	ld	r24, Z
    279c:	81 80       	ldd	r8, Z+1	; 0x01
    279e:	80 7f       	andi	r24, 0xF0	; 240
    27a0:	80 80       	ld	r8, Z
    27a2:	80 80       	ld	r8, Z
    27a4:	80 80       	ld	r8, Z
    27a6:	81 80       	ldd	r8, Z+1	; 0x01
    27a8:	80 80       	ld	r8, Z
    27aa:	80 80       	ld	r8, Z
    27ac:	7f 80       	ldd	r7, Y+7	; 0x07
    27ae:	80 80       	ld	r8, Z
    27b0:	80 80       	ld	r8, Z
    27b2:	81 80       	ldd	r8, Z+1	; 0x01
    27b4:	80 80       	ld	r8, Z
    27b6:	81 80       	ldd	r8, Z+1	; 0x01
    27b8:	7f 80       	ldd	r7, Y+7	; 0x07
    27ba:	80 81       	ld	r24, Z
    27bc:	81 7f       	andi	r24, 0xF1	; 241
    27be:	80 7f       	andi	r24, 0xF0	; 240
    27c0:	80 80       	ld	r8, Z
    27c2:	7f 80       	ldd	r7, Y+7	; 0x07
    27c4:	80 80       	ld	r8, Z
    27c6:	80 80       	ld	r8, Z
    27c8:	7f 80       	ldd	r7, Y+7	; 0x07
    27ca:	80 81       	ld	r24, Z
    27cc:	80 80       	ld	r8, Z
    27ce:	81 7f       	andi	r24, 0xF1	; 241
    27d0:	81 80       	ldd	r8, Z+1	; 0x01
    27d2:	80 81       	ld	r24, Z
    27d4:	80 81       	ld	r24, Z
    27d6:	80 80       	ld	r8, Z
    27d8:	80 7f       	andi	r24, 0xF0	; 240
    27da:	80 80       	ld	r8, Z
    27dc:	80 80       	ld	r8, Z
    27de:	81 80       	ldd	r8, Z+1	; 0x01
    27e0:	81 80       	ldd	r8, Z+1	; 0x01
    27e2:	80 80       	ld	r8, Z
    27e4:	7f 80       	ldd	r7, Y+7	; 0x07
    27e6:	80 80       	ld	r8, Z
    27e8:	7f 80       	ldd	r7, Y+7	; 0x07
    27ea:	80 80       	ld	r8, Z
    27ec:	81 80       	ldd	r8, Z+1	; 0x01
    27ee:	80 80       	ld	r8, Z
    27f0:	80 7f       	andi	r24, 0xF0	; 240
    27f2:	80 80       	ld	r8, Z
    27f4:	80 81       	ld	r24, Z
    27f6:	81 7f       	andi	r24, 0xF1	; 241
    27f8:	80 80       	ld	r8, Z
    27fa:	80 80       	ld	r8, Z
    27fc:	80 80       	ld	r8, Z
    27fe:	80 80       	ld	r8, Z
    2800:	7f 80       	ldd	r7, Y+7	; 0x07
    2802:	80 80       	ld	r8, Z
    2804:	80 7f       	andi	r24, 0xF0	; 240
    2806:	80 80       	ld	r8, Z
    2808:	81 7f       	andi	r24, 0xF1	; 241
    280a:	80 80       	ld	r8, Z
    280c:	7f 80       	ldd	r7, Y+7	; 0x07
    280e:	80 81       	ld	r24, Z
    2810:	7f 80       	ldd	r7, Y+7	; 0x07
    2812:	80 80       	ld	r8, Z
    2814:	80 80       	ld	r8, Z
    2816:	7f 80       	ldd	r7, Y+7	; 0x07
    2818:	80 80       	ld	r8, Z
    281a:	80 80       	ld	r8, Z
    281c:	80 80       	ld	r8, Z
    281e:	80 80       	ld	r8, Z
    2820:	80 81       	ld	r24, Z
    2822:	80 80       	ld	r8, Z
    2824:	80 80       	ld	r8, Z
    2826:	7f 81       	ldd	r23, Y+7	; 0x07
    2828:	80 80       	ld	r8, Z
    282a:	80 7f       	andi	r24, 0xF0	; 240
    282c:	80 7f       	andi	r24, 0xF0	; 240
    282e:	80 80       	ld	r8, Z
    2830:	80 80       	ld	r8, Z
    2832:	80 80       	ld	r8, Z
    2834:	81 80       	ldd	r8, Z+1	; 0x01
    2836:	7f 80       	ldd	r7, Y+7	; 0x07
    2838:	80 7f       	andi	r24, 0xF0	; 240
    283a:	80 81       	ld	r24, Z
    283c:	80 80       	ld	r8, Z
    283e:	80 80       	ld	r8, Z
    2840:	80 80       	ld	r8, Z
    2842:	81 7f       	andi	r24, 0xF1	; 241
    2844:	80 81       	ld	r24, Z
    2846:	80 80       	ld	r8, Z
    2848:	80 7f       	andi	r24, 0xF0	; 240
    284a:	80 81       	ld	r24, Z
    284c:	7f 80       	ldd	r7, Y+7	; 0x07
    284e:	7f 80       	ldd	r7, Y+7	; 0x07
    2850:	7f 7f       	andi	r23, 0xFF	; 255
    2852:	7f 80       	ldd	r7, Y+7	; 0x07
    2854:	80 80       	ld	r8, Z
    2856:	81 80       	ldd	r8, Z+1	; 0x01
    2858:	80 80       	ld	r8, Z
    285a:	80 80       	ld	r8, Z
    285c:	81 80       	ldd	r8, Z+1	; 0x01
    285e:	80 7f       	andi	r24, 0xF0	; 240
    2860:	80 80       	ld	r8, Z
    2862:	80 80       	ld	r8, Z
    2864:	80 80       	ld	r8, Z
    2866:	81 81       	ldd	r24, Z+1	; 0x01
    2868:	81 80       	ldd	r8, Z+1	; 0x01
    286a:	80 80       	ld	r8, Z
    286c:	80 80       	ld	r8, Z
    286e:	81 80       	ldd	r8, Z+1	; 0x01
    2870:	80 80       	ld	r8, Z
    2872:	80 80       	ld	r8, Z
    2874:	80 81       	ld	r24, Z
    2876:	80 7f       	andi	r24, 0xF0	; 240
    2878:	80 80       	ld	r8, Z
    287a:	80 80       	ld	r8, Z
    287c:	80 80       	ld	r8, Z
    287e:	80 7f       	andi	r24, 0xF0	; 240
    2880:	80 80       	ld	r8, Z
    2882:	81 80       	ldd	r8, Z+1	; 0x01
    2884:	80 81       	ld	r24, Z
    2886:	80 80       	ld	r8, Z
    2888:	80 81       	ld	r24, Z
    288a:	81 80       	ldd	r8, Z+1	; 0x01
    288c:	80 80       	ld	r8, Z
    288e:	80 80       	ld	r8, Z
    2890:	7f 80       	ldd	r7, Y+7	; 0x07
    2892:	7f 80       	ldd	r7, Y+7	; 0x07
    2894:	80 80       	ld	r8, Z
    2896:	80 81       	ld	r24, Z
    2898:	80 7f       	andi	r24, 0xF0	; 240
    289a:	80 80       	ld	r8, Z
    289c:	80 7f       	andi	r24, 0xF0	; 240
    289e:	80 80       	ld	r8, Z
    28a0:	80 80       	ld	r8, Z
    28a2:	80 80       	ld	r8, Z
    28a4:	7f 80       	ldd	r7, Y+7	; 0x07
    28a6:	80 81       	ld	r24, Z
    28a8:	7f 80       	ldd	r7, Y+7	; 0x07
    28aa:	80 80       	ld	r8, Z
    28ac:	80 7f       	andi	r24, 0xF0	; 240
    28ae:	80 80       	ld	r8, Z
    28b0:	80 80       	ld	r8, Z
    28b2:	80 7f       	andi	r24, 0xF0	; 240
    28b4:	80 80       	ld	r8, Z
    28b6:	80 80       	ld	r8, Z
    28b8:	7f 80       	ldd	r7, Y+7	; 0x07
    28ba:	80 81       	ld	r24, Z
    28bc:	80 80       	ld	r8, Z
    28be:	80 7f       	andi	r24, 0xF0	; 240
    28c0:	80 80       	ld	r8, Z
    28c2:	80 80       	ld	r8, Z
    28c4:	80 80       	ld	r8, Z
    28c6:	80 7f       	andi	r24, 0xF0	; 240
    28c8:	80 80       	ld	r8, Z
    28ca:	7f 80       	ldd	r7, Y+7	; 0x07
    28cc:	80 81       	ld	r24, Z
    28ce:	81 7f       	andi	r24, 0xF1	; 241
    28d0:	80 80       	ld	r8, Z
    28d2:	81 80       	ldd	r8, Z+1	; 0x01
    28d4:	80 80       	ld	r8, Z
    28d6:	80 80       	ld	r8, Z
    28d8:	80 80       	ld	r8, Z
    28da:	80 80       	ld	r8, Z
    28dc:	80 80       	ld	r8, Z
    28de:	80 80       	ld	r8, Z
    28e0:	80 80       	ld	r8, Z
    28e2:	80 80       	ld	r8, Z
    28e4:	80 80       	ld	r8, Z
    28e6:	80 80       	ld	r8, Z
    28e8:	80 80       	ld	r8, Z
    28ea:	80 80       	ld	r8, Z
    28ec:	80 80       	ld	r8, Z
    28ee:	80 80       	ld	r8, Z
    28f0:	81 7f       	andi	r24, 0xF1	; 241
    28f2:	80 80       	ld	r8, Z
    28f4:	80 80       	ld	r8, Z
    28f6:	80 81       	ld	r24, Z
    28f8:	80 80       	ld	r8, Z
    28fa:	81 80       	ldd	r8, Z+1	; 0x01
    28fc:	80 80       	ld	r8, Z
    28fe:	80 80       	ld	r8, Z
    2900:	80 80       	ld	r8, Z
    2902:	80 80       	ld	r8, Z
    2904:	80 81       	ld	r24, Z
    2906:	81 81       	ldd	r24, Z+1	; 0x01
    2908:	80 80       	ld	r8, Z
    290a:	80 80       	ld	r8, Z
    290c:	80 80       	ld	r8, Z
    290e:	80 80       	ld	r8, Z
    2910:	80 80       	ld	r8, Z
    2912:	81 80       	ldd	r8, Z+1	; 0x01
    2914:	80 7f       	andi	r24, 0xF0	; 240
    2916:	80 80       	ld	r8, Z
    2918:	80 80       	ld	r8, Z
    291a:	80 80       	ld	r8, Z
    291c:	7f 80       	ldd	r7, Y+7	; 0x07
    291e:	81 80       	ldd	r8, Z+1	; 0x01
    2920:	80 80       	ld	r8, Z
    2922:	7f 80       	ldd	r7, Y+7	; 0x07
    2924:	80 80       	ld	r8, Z
    2926:	81 80       	ldd	r8, Z+1	; 0x01
    2928:	80 80       	ld	r8, Z
    292a:	80 7f       	andi	r24, 0xF0	; 240
    292c:	80 7f       	andi	r24, 0xF0	; 240
    292e:	80 80       	ld	r8, Z
    2930:	81 80       	ldd	r8, Z+1	; 0x01
    2932:	7f 80       	ldd	r7, Y+7	; 0x07
    2934:	80 80       	ld	r8, Z
    2936:	80 80       	ld	r8, Z
    2938:	80 7f       	andi	r24, 0xF0	; 240
    293a:	80 80       	ld	r8, Z
    293c:	80 81       	ld	r24, Z
    293e:	80 80       	ld	r8, Z
    2940:	7f 7f       	andi	r23, 0xFF	; 255
    2942:	80 80       	ld	r8, Z
    2944:	80 80       	ld	r8, Z
    2946:	81 80       	ldd	r8, Z+1	; 0x01
    2948:	80 81       	ld	r24, Z
    294a:	80 80       	ld	r8, Z
    294c:	80 80       	ld	r8, Z
    294e:	80 80       	ld	r8, Z
    2950:	7f 81       	ldd	r23, Y+7	; 0x07
    2952:	80 80       	ld	r8, Z
    2954:	80 80       	ld	r8, Z
    2956:	80 80       	ld	r8, Z
    2958:	80 80       	ld	r8, Z
    295a:	7f 80       	ldd	r7, Y+7	; 0x07
    295c:	80 80       	ld	r8, Z
    295e:	80 80       	ld	r8, Z
    2960:	80 80       	ld	r8, Z
    2962:	80 80       	ld	r8, Z
    2964:	80 80       	ld	r8, Z
    2966:	80 80       	ld	r8, Z
    2968:	80 80       	ld	r8, Z
    296a:	80 80       	ld	r8, Z
    296c:	80 80       	ld	r8, Z
    296e:	80 81       	ld	r24, Z
    2970:	80 80       	ld	r8, Z
    2972:	80 7f       	andi	r24, 0xF0	; 240
    2974:	7f 80       	ldd	r7, Y+7	; 0x07
    2976:	80 80       	ld	r8, Z
    2978:	80 80       	ld	r8, Z
    297a:	7f 80       	ldd	r7, Y+7	; 0x07
    297c:	80 80       	ld	r8, Z
    297e:	80 7f       	andi	r24, 0xF0	; 240
    2980:	80 80       	ld	r8, Z
    2982:	7f 80       	ldd	r7, Y+7	; 0x07
    2984:	80 80       	ld	r8, Z
    2986:	80 80       	ld	r8, Z
    2988:	80 80       	ld	r8, Z
    298a:	80 80       	ld	r8, Z
    298c:	80 7f       	andi	r24, 0xF0	; 240
    298e:	80 80       	ld	r8, Z
    2990:	80 80       	ld	r8, Z
    2992:	7f 80       	ldd	r7, Y+7	; 0x07
    2994:	80 80       	ld	r8, Z
    2996:	81 81       	ldd	r24, Z+1	; 0x01
    2998:	81 80       	ldd	r8, Z+1	; 0x01
    299a:	81 80       	ldd	r8, Z+1	; 0x01
    299c:	80 80       	ld	r8, Z
    299e:	80 80       	ld	r8, Z
    29a0:	7f 80       	ldd	r7, Y+7	; 0x07
    29a2:	80 80       	ld	r8, Z
    29a4:	80 7f       	andi	r24, 0xF0	; 240
    29a6:	80 81       	ld	r24, Z
    29a8:	81 80       	ldd	r8, Z+1	; 0x01
    29aa:	80 80       	ld	r8, Z
    29ac:	80 80       	ld	r8, Z
    29ae:	80 7f       	andi	r24, 0xF0	; 240
    29b0:	80 7f       	andi	r24, 0xF0	; 240
    29b2:	80 80       	ld	r8, Z
    29b4:	80 80       	ld	r8, Z
    29b6:	80 80       	ld	r8, Z
    29b8:	80 80       	ld	r8, Z
    29ba:	80 81       	ld	r24, Z
    29bc:	80 80       	ld	r8, Z
    29be:	80 80       	ld	r8, Z
    29c0:	80 80       	ld	r8, Z
    29c2:	80 80       	ld	r8, Z
    29c4:	80 80       	ld	r8, Z
    29c6:	80 80       	ld	r8, Z
    29c8:	80 80       	ld	r8, Z
    29ca:	81 80       	ldd	r8, Z+1	; 0x01
    29cc:	7f 80       	ldd	r7, Y+7	; 0x07
    29ce:	80 80       	ld	r8, Z
    29d0:	80 80       	ld	r8, Z
    29d2:	80 81       	ld	r24, Z
    29d4:	80 80       	ld	r8, Z
    29d6:	80 80       	ld	r8, Z
    29d8:	80 7f       	andi	r24, 0xF0	; 240
    29da:	80 80       	ld	r8, Z
    29dc:	7f 80       	ldd	r7, Y+7	; 0x07
    29de:	80 80       	ld	r8, Z
    29e0:	80 80       	ld	r8, Z
    29e2:	80 80       	ld	r8, Z
    29e4:	80 80       	ld	r8, Z
    29e6:	7f 80       	ldd	r7, Y+7	; 0x07
    29e8:	80 80       	ld	r8, Z
    29ea:	80 80       	ld	r8, Z
    29ec:	80 80       	ld	r8, Z
    29ee:	80 7f       	andi	r24, 0xF0	; 240
    29f0:	80 80       	ld	r8, Z
    29f2:	80 80       	ld	r8, Z
    29f4:	80 80       	ld	r8, Z
    29f6:	80 80       	ld	r8, Z
    29f8:	80 80       	ld	r8, Z
    29fa:	80 80       	ld	r8, Z
    29fc:	80 80       	ld	r8, Z
    29fe:	80 80       	ld	r8, Z
    2a00:	7f 7f       	andi	r23, 0xFF	; 255
    2a02:	80 80       	ld	r8, Z
    2a04:	7f 81       	ldd	r23, Y+7	; 0x07
    2a06:	80 80       	ld	r8, Z
    2a08:	80 80       	ld	r8, Z
    2a0a:	80 80       	ld	r8, Z
    2a0c:	7f 80       	ldd	r7, Y+7	; 0x07
    2a0e:	80 7f       	andi	r24, 0xF0	; 240
    2a10:	7f 80       	ldd	r7, Y+7	; 0x07
    2a12:	81 80       	ldd	r8, Z+1	; 0x01
    2a14:	7f 80       	ldd	r7, Y+7	; 0x07
    2a16:	80 80       	ld	r8, Z
    2a18:	80 80       	ld	r8, Z
    2a1a:	80 80       	ld	r8, Z
    2a1c:	80 80       	ld	r8, Z
    2a1e:	80 80       	ld	r8, Z
    2a20:	80 80       	ld	r8, Z
    2a22:	80 80       	ld	r8, Z
    2a24:	80 80       	ld	r8, Z
    2a26:	80 7f       	andi	r24, 0xF0	; 240
    2a28:	80 80       	ld	r8, Z
    2a2a:	7f 80       	ldd	r7, Y+7	; 0x07
    2a2c:	80 81       	ld	r24, Z
    2a2e:	7f 81       	ldd	r23, Y+7	; 0x07
    2a30:	80 80       	ld	r8, Z
    2a32:	80 7f       	andi	r24, 0xF0	; 240
    2a34:	80 80       	ld	r8, Z
    2a36:	80 80       	ld	r8, Z
    2a38:	80 7f       	andi	r24, 0xF0	; 240
    2a3a:	80 80       	ld	r8, Z
    2a3c:	81 80       	ldd	r8, Z+1	; 0x01
    2a3e:	80 80       	ld	r8, Z
    2a40:	80 80       	ld	r8, Z
    2a42:	80 80       	ld	r8, Z
    2a44:	80 80       	ld	r8, Z
    2a46:	80 81       	ld	r24, Z
    2a48:	80 80       	ld	r8, Z
    2a4a:	80 80       	ld	r8, Z
    2a4c:	80 80       	ld	r8, Z
    2a4e:	80 80       	ld	r8, Z
    2a50:	80 80       	ld	r8, Z
    2a52:	80 80       	ld	r8, Z
    2a54:	80 80       	ld	r8, Z
    2a56:	7f 80       	ldd	r7, Y+7	; 0x07
    2a58:	80 80       	ld	r8, Z
    2a5a:	80 80       	ld	r8, Z
    2a5c:	80 80       	ld	r8, Z
    2a5e:	80 80       	ld	r8, Z
    2a60:	80 80       	ld	r8, Z
    2a62:	80 80       	ld	r8, Z
    2a64:	80 80       	ld	r8, Z
    2a66:	81 80       	ldd	r8, Z+1	; 0x01
    2a68:	80 80       	ld	r8, Z
    2a6a:	80 80       	ld	r8, Z
    2a6c:	80 7f       	andi	r24, 0xF0	; 240
    2a6e:	81 7f       	andi	r24, 0xF1	; 241
    2a70:	80 80       	ld	r8, Z
    2a72:	7f 80       	ldd	r7, Y+7	; 0x07
    2a74:	80 80       	ld	r8, Z
    2a76:	80 80       	ld	r8, Z
    2a78:	80 80       	ld	r8, Z
    2a7a:	7f 80       	ldd	r7, Y+7	; 0x07
    2a7c:	81 7f       	andi	r24, 0xF1	; 241
    2a7e:	80 80       	ld	r8, Z
    2a80:	80 7f       	andi	r24, 0xF0	; 240
    2a82:	80 80       	ld	r8, Z
    2a84:	80 7f       	andi	r24, 0xF0	; 240
    2a86:	80 81       	ld	r24, Z
    2a88:	80 81       	ld	r24, Z
    2a8a:	80 80       	ld	r8, Z
    2a8c:	81 80       	ldd	r8, Z+1	; 0x01
    2a8e:	80 80       	ld	r8, Z
    2a90:	80 80       	ld	r8, Z
    2a92:	81 7f       	andi	r24, 0xF1	; 241
    2a94:	81 81       	ldd	r24, Z+1	; 0x01
    2a96:	7f 7f       	andi	r23, 0xFF	; 255
    2a98:	80 80       	ld	r8, Z
    2a9a:	80 80       	ld	r8, Z
    2a9c:	80 80       	ld	r8, Z
    2a9e:	80 80       	ld	r8, Z
    2aa0:	80 80       	ld	r8, Z
    2aa2:	81 7f       	andi	r24, 0xF1	; 241
    2aa4:	80 81       	ld	r24, Z
    2aa6:	80 80       	ld	r8, Z
    2aa8:	80 80       	ld	r8, Z
    2aaa:	80 80       	ld	r8, Z
    2aac:	81 80       	ldd	r8, Z+1	; 0x01
    2aae:	80 7f       	andi	r24, 0xF0	; 240
    2ab0:	80 80       	ld	r8, Z
    2ab2:	80 80       	ld	r8, Z
    2ab4:	80 80       	ld	r8, Z
    2ab6:	80 7f       	andi	r24, 0xF0	; 240
    2ab8:	80 80       	ld	r8, Z
    2aba:	80 80       	ld	r8, Z
    2abc:	80 80       	ld	r8, Z
    2abe:	7f 80       	ldd	r7, Y+7	; 0x07
    2ac0:	80 80       	ld	r8, Z
    2ac2:	80 81       	ld	r24, Z
    2ac4:	80 80       	ld	r8, Z
    2ac6:	80 80       	ld	r8, Z
    2ac8:	80 80       	ld	r8, Z
    2aca:	80 80       	ld	r8, Z
    2acc:	7f 80       	ldd	r7, Y+7	; 0x07
    2ace:	81 80       	ldd	r8, Z+1	; 0x01
    2ad0:	80 80       	ld	r8, Z
    2ad2:	80 80       	ld	r8, Z
    2ad4:	80 80       	ld	r8, Z
    2ad6:	80 80       	ld	r8, Z
    2ad8:	80 80       	ld	r8, Z
    2ada:	80 80       	ld	r8, Z
    2adc:	80 80       	ld	r8, Z
    2ade:	80 80       	ld	r8, Z
    2ae0:	81 80       	ldd	r8, Z+1	; 0x01
    2ae2:	80 80       	ld	r8, Z
    2ae4:	80 81       	ld	r24, Z
    2ae6:	7f 81       	ldd	r23, Y+7	; 0x07
    2ae8:	80 80       	ld	r8, Z
    2aea:	80 80       	ld	r8, Z
    2aec:	80 80       	ld	r8, Z
    2aee:	80 80       	ld	r8, Z
    2af0:	80 80       	ld	r8, Z
    2af2:	81 80       	ldd	r8, Z+1	; 0x01
    2af4:	7f 80       	ldd	r7, Y+7	; 0x07
    2af6:	81 80       	ldd	r8, Z+1	; 0x01
    2af8:	80 80       	ld	r8, Z
    2afa:	80 80       	ld	r8, Z
    2afc:	80 80       	ld	r8, Z
    2afe:	80 80       	ld	r8, Z
    2b00:	80 80       	ld	r8, Z
    2b02:	80 80       	ld	r8, Z
    2b04:	80 80       	ld	r8, Z
    2b06:	81 80       	ldd	r8, Z+1	; 0x01
    2b08:	80 80       	ld	r8, Z
    2b0a:	80 80       	ld	r8, Z
    2b0c:	81 80       	ldd	r8, Z+1	; 0x01
    2b0e:	80 80       	ld	r8, Z
    2b10:	7f 80       	ldd	r7, Y+7	; 0x07
    2b12:	7f 80       	ldd	r7, Y+7	; 0x07
    2b14:	80 80       	ld	r8, Z
    2b16:	80 80       	ld	r8, Z
    2b18:	80 81       	ld	r24, Z
    2b1a:	80 80       	ld	r8, Z
    2b1c:	80 80       	ld	r8, Z
    2b1e:	80 80       	ld	r8, Z
    2b20:	80 80       	ld	r8, Z
    2b22:	80 80       	ld	r8, Z
    2b24:	81 80       	ldd	r8, Z+1	; 0x01
    2b26:	80 7f       	andi	r24, 0xF0	; 240
    2b28:	80 80       	ld	r8, Z
    2b2a:	80 80       	ld	r8, Z
    2b2c:	80 80       	ld	r8, Z
    2b2e:	80 80       	ld	r8, Z
    2b30:	81 80       	ldd	r8, Z+1	; 0x01
    2b32:	80 7f       	andi	r24, 0xF0	; 240
    2b34:	7f 80       	ldd	r7, Y+7	; 0x07
    2b36:	80 81       	ld	r24, Z
    2b38:	80 80       	ld	r8, Z
    2b3a:	80 80       	ld	r8, Z
    2b3c:	80 80       	ld	r8, Z
    2b3e:	80 80       	ld	r8, Z
    2b40:	80 7f       	andi	r24, 0xF0	; 240
    2b42:	80 80       	ld	r8, Z
    2b44:	7f 80       	ldd	r7, Y+7	; 0x07
    2b46:	7f 80       	ldd	r7, Y+7	; 0x07
    2b48:	80 7f       	andi	r24, 0xF0	; 240
    2b4a:	80 80       	ld	r8, Z
    2b4c:	80 80       	ld	r8, Z
    2b4e:	80 81       	ld	r24, Z
    2b50:	80 80       	ld	r8, Z
    2b52:	80 80       	ld	r8, Z
    2b54:	81 80       	ldd	r8, Z+1	; 0x01
    2b56:	80 80       	ld	r8, Z
    2b58:	7f 7f       	andi	r23, 0xFF	; 255
    2b5a:	80 80       	ld	r8, Z
    2b5c:	80 80       	ld	r8, Z
    2b5e:	80 80       	ld	r8, Z
    2b60:	80 80       	ld	r8, Z
    2b62:	80 80       	ld	r8, Z
    2b64:	7f 80       	ldd	r7, Y+7	; 0x07
    2b66:	80 81       	ld	r24, Z
    2b68:	80 80       	ld	r8, Z
    2b6a:	81 80       	ldd	r8, Z+1	; 0x01
    2b6c:	80 81       	ld	r24, Z
    2b6e:	80 81       	ld	r24, Z
    2b70:	80 80       	ld	r8, Z
    2b72:	80 80       	ld	r8, Z
    2b74:	80 80       	ld	r8, Z
    2b76:	80 80       	ld	r8, Z
    2b78:	80 80       	ld	r8, Z
    2b7a:	7f 81       	ldd	r23, Y+7	; 0x07
    2b7c:	81 81       	ldd	r24, Z+1	; 0x01
    2b7e:	80 80       	ld	r8, Z
    2b80:	80 7f       	andi	r24, 0xF0	; 240
    2b82:	80 81       	ld	r24, Z
    2b84:	7f 80       	ldd	r7, Y+7	; 0x07
    2b86:	80 80       	ld	r8, Z
    2b88:	80 80       	ld	r8, Z
    2b8a:	80 7f       	andi	r24, 0xF0	; 240
    2b8c:	81 7f       	andi	r24, 0xF1	; 241
    2b8e:	80 80       	ld	r8, Z
    2b90:	80 80       	ld	r8, Z
    2b92:	80 80       	ld	r8, Z
    2b94:	80 80       	ld	r8, Z
    2b96:	80 80       	ld	r8, Z
    2b98:	80 80       	ld	r8, Z
    2b9a:	7f 80       	ldd	r7, Y+7	; 0x07
    2b9c:	80 80       	ld	r8, Z
    2b9e:	80 80       	ld	r8, Z
    2ba0:	80 80       	ld	r8, Z
    2ba2:	80 7f       	andi	r24, 0xF0	; 240
    2ba4:	80 80       	ld	r8, Z
    2ba6:	80 80       	ld	r8, Z
    2ba8:	80 7f       	andi	r24, 0xF0	; 240
    2baa:	80 7f       	andi	r24, 0xF0	; 240
    2bac:	7f 80       	ldd	r7, Y+7	; 0x07
    2bae:	81 80       	ldd	r8, Z+1	; 0x01
    2bb0:	81 80       	ldd	r8, Z+1	; 0x01
    2bb2:	80 80       	ld	r8, Z
    2bb4:	7f 80       	ldd	r7, Y+7	; 0x07
    2bb6:	80 81       	ld	r24, Z
    2bb8:	80 80       	ld	r8, Z
    2bba:	80 80       	ld	r8, Z
    2bbc:	80 80       	ld	r8, Z
    2bbe:	80 80       	ld	r8, Z
    2bc0:	80 80       	ld	r8, Z
    2bc2:	7f 80       	ldd	r7, Y+7	; 0x07
    2bc4:	80 80       	ld	r8, Z
    2bc6:	80 80       	ld	r8, Z
    2bc8:	80 80       	ld	r8, Z
    2bca:	80 7f       	andi	r24, 0xF0	; 240
    2bcc:	80 7f       	andi	r24, 0xF0	; 240
    2bce:	7f 80       	ldd	r7, Y+7	; 0x07
    2bd0:	80 80       	ld	r8, Z
    2bd2:	80 80       	ld	r8, Z
    2bd4:	81 81       	ldd	r24, Z+1	; 0x01
    2bd6:	80 80       	ld	r8, Z
    2bd8:	80 80       	ld	r8, Z
    2bda:	80 80       	ld	r8, Z
    2bdc:	81 80       	ldd	r8, Z+1	; 0x01
    2bde:	80 81       	ld	r24, Z
    2be0:	80 80       	ld	r8, Z
    2be2:	80 80       	ld	r8, Z
    2be4:	80 80       	ld	r8, Z
    2be6:	81 80       	ldd	r8, Z+1	; 0x01
    2be8:	81 80       	ldd	r8, Z+1	; 0x01
    2bea:	80 80       	ld	r8, Z
    2bec:	81 80       	ldd	r8, Z+1	; 0x01
    2bee:	80 80       	ld	r8, Z
    2bf0:	80 80       	ld	r8, Z
    2bf2:	81 80       	ldd	r8, Z+1	; 0x01
    2bf4:	80 80       	ld	r8, Z
    2bf6:	80 80       	ld	r8, Z
    2bf8:	80 80       	ld	r8, Z
    2bfa:	80 80       	ld	r8, Z
    2bfc:	80 80       	ld	r8, Z
    2bfe:	80 80       	ld	r8, Z
    2c00:	80 80       	ld	r8, Z
    2c02:	80 81       	ld	r24, Z
    2c04:	80 80       	ld	r8, Z
    2c06:	80 7f       	andi	r24, 0xF0	; 240
    2c08:	80 80       	ld	r8, Z
    2c0a:	80 81       	ld	r24, Z
    2c0c:	81 81       	ldd	r24, Z+1	; 0x01
    2c0e:	80 80       	ld	r8, Z
    2c10:	80 80       	ld	r8, Z
    2c12:	80 80       	ld	r8, Z
    2c14:	80 80       	ld	r8, Z
    2c16:	80 81       	ld	r24, Z
    2c18:	7f 80       	ldd	r7, Y+7	; 0x07
    2c1a:	7f 80       	ldd	r7, Y+7	; 0x07
    2c1c:	80 80       	ld	r8, Z
    2c1e:	80 80       	ld	r8, Z
    2c20:	80 80       	ld	r8, Z
    2c22:	80 80       	ld	r8, Z
    2c24:	80 80       	ld	r8, Z
    2c26:	80 80       	ld	r8, Z
    2c28:	80 80       	ld	r8, Z
    2c2a:	80 81       	ld	r24, Z
    2c2c:	80 7f       	andi	r24, 0xF0	; 240
    2c2e:	80 7f       	andi	r24, 0xF0	; 240
    2c30:	80 7f       	andi	r24, 0xF0	; 240
    2c32:	80 81       	ld	r24, Z
    2c34:	80 80       	ld	r8, Z
    2c36:	80 80       	ld	r8, Z
    2c38:	80 80       	ld	r8, Z
    2c3a:	80 80       	ld	r8, Z
    2c3c:	80 80       	ld	r8, Z
    2c3e:	7f 80       	ldd	r7, Y+7	; 0x07
    2c40:	80 80       	ld	r8, Z
    2c42:	81 80       	ldd	r8, Z+1	; 0x01
    2c44:	80 80       	ld	r8, Z
    2c46:	80 80       	ld	r8, Z
    2c48:	80 80       	ld	r8, Z
    2c4a:	7f 7f       	andi	r23, 0xFF	; 255
    2c4c:	80 80       	ld	r8, Z
    2c4e:	80 80       	ld	r8, Z
    2c50:	80 80       	ld	r8, Z
    2c52:	80 7f       	andi	r24, 0xF0	; 240
    2c54:	81 80       	ldd	r8, Z+1	; 0x01
    2c56:	81 80       	ldd	r8, Z+1	; 0x01
    2c58:	80 7f       	andi	r24, 0xF0	; 240
    2c5a:	81 80       	ldd	r8, Z+1	; 0x01
    2c5c:	81 80       	ldd	r8, Z+1	; 0x01
    2c5e:	81 80       	ldd	r8, Z+1	; 0x01
    2c60:	80 80       	ld	r8, Z
    2c62:	80 80       	ld	r8, Z
    2c64:	80 7f       	andi	r24, 0xF0	; 240
    2c66:	81 80       	ldd	r8, Z+1	; 0x01
    2c68:	81 80       	ldd	r8, Z+1	; 0x01
    2c6a:	80 80       	ld	r8, Z
    2c6c:	80 80       	ld	r8, Z
    2c6e:	7f 80       	ldd	r7, Y+7	; 0x07
    2c70:	80 7f       	andi	r24, 0xF0	; 240
    2c72:	81 80       	ldd	r8, Z+1	; 0x01
    2c74:	80 80       	ld	r8, Z
    2c76:	80 80       	ld	r8, Z
    2c78:	80 80       	ld	r8, Z
    2c7a:	81 80       	ldd	r8, Z+1	; 0x01
    2c7c:	80 80       	ld	r8, Z
    2c7e:	80 80       	ld	r8, Z
    2c80:	7f 80       	ldd	r7, Y+7	; 0x07
    2c82:	80 80       	ld	r8, Z
    2c84:	80 81       	ld	r24, Z
    2c86:	80 81       	ld	r24, Z
    2c88:	80 80       	ld	r8, Z
    2c8a:	80 80       	ld	r8, Z
    2c8c:	80 80       	ld	r8, Z
    2c8e:	80 80       	ld	r8, Z
    2c90:	81 80       	ldd	r8, Z+1	; 0x01
    2c92:	80 81       	ld	r24, Z
    2c94:	80 80       	ld	r8, Z
    2c96:	80 81       	ld	r24, Z
    2c98:	80 80       	ld	r8, Z
    2c9a:	7f 80       	ldd	r7, Y+7	; 0x07
    2c9c:	80 80       	ld	r8, Z
    2c9e:	80 80       	ld	r8, Z
    2ca0:	80 80       	ld	r8, Z
    2ca2:	80 80       	ld	r8, Z
    2ca4:	80 7f       	andi	r24, 0xF0	; 240
    2ca6:	80 80       	ld	r8, Z
    2ca8:	7f 80       	ldd	r7, Y+7	; 0x07
    2caa:	80 80       	ld	r8, Z
    2cac:	80 80       	ld	r8, Z
    2cae:	80 81       	ld	r24, Z
    2cb0:	80 7f       	andi	r24, 0xF0	; 240
    2cb2:	80 80       	ld	r8, Z
    2cb4:	7f 80       	ldd	r7, Y+7	; 0x07
    2cb6:	80 80       	ld	r8, Z
    2cb8:	80 7f       	andi	r24, 0xF0	; 240
    2cba:	80 80       	ld	r8, Z
    2cbc:	80 80       	ld	r8, Z
    2cbe:	80 80       	ld	r8, Z
    2cc0:	80 81       	ld	r24, Z
    2cc2:	80 80       	ld	r8, Z
    2cc4:	80 80       	ld	r8, Z
    2cc6:	80 7f       	andi	r24, 0xF0	; 240
    2cc8:	80 80       	ld	r8, Z
    2cca:	81 80       	ldd	r8, Z+1	; 0x01
    2ccc:	80 80       	ld	r8, Z
    2cce:	7f 80       	ldd	r7, Y+7	; 0x07
    2cd0:	80 80       	ld	r8, Z
    2cd2:	81 80       	ldd	r8, Z+1	; 0x01
    2cd4:	81 80       	ldd	r8, Z+1	; 0x01
    2cd6:	81 81       	ldd	r24, Z+1	; 0x01
    2cd8:	80 80       	ld	r8, Z
    2cda:	80 80       	ld	r8, Z
    2cdc:	80 7f       	andi	r24, 0xF0	; 240
    2cde:	80 80       	ld	r8, Z
    2ce0:	81 80       	ldd	r8, Z+1	; 0x01
    2ce2:	80 80       	ld	r8, Z
    2ce4:	81 81       	ldd	r24, Z+1	; 0x01
    2ce6:	81 80       	ldd	r8, Z+1	; 0x01
    2ce8:	81 80       	ldd	r8, Z+1	; 0x01
    2cea:	80 80       	ld	r8, Z
    2cec:	80 80       	ld	r8, Z
    2cee:	7f 7f       	andi	r23, 0xFF	; 255
    2cf0:	80 7f       	andi	r24, 0xF0	; 240
    2cf2:	80 81       	ld	r24, Z
    2cf4:	7f 7f       	andi	r23, 0xFF	; 255
    2cf6:	80 80       	ld	r8, Z
    2cf8:	80 7f       	andi	r24, 0xF0	; 240
    2cfa:	80 80       	ld	r8, Z
    2cfc:	80 80       	ld	r8, Z
    2cfe:	80 80       	ld	r8, Z
    2d00:	80 7f       	andi	r24, 0xF0	; 240
    2d02:	80 80       	ld	r8, Z
    2d04:	80 80       	ld	r8, Z
    2d06:	80 80       	ld	r8, Z
    2d08:	80 80       	ld	r8, Z
    2d0a:	80 80       	ld	r8, Z
    2d0c:	81 80       	ldd	r8, Z+1	; 0x01
    2d0e:	80 80       	ld	r8, Z
    2d10:	7f 80       	ldd	r7, Y+7	; 0x07
    2d12:	80 80       	ld	r8, Z
    2d14:	80 80       	ld	r8, Z
    2d16:	81 80       	ldd	r8, Z+1	; 0x01
    2d18:	80 80       	ld	r8, Z
    2d1a:	80 81       	ld	r24, Z
    2d1c:	80 80       	ld	r8, Z
    2d1e:	80 80       	ld	r8, Z
    2d20:	80 80       	ld	r8, Z
    2d22:	7f 80       	ldd	r7, Y+7	; 0x07
    2d24:	80 80       	ld	r8, Z
    2d26:	80 7f       	andi	r24, 0xF0	; 240
    2d28:	80 80       	ld	r8, Z
    2d2a:	80 80       	ld	r8, Z
    2d2c:	80 7f       	andi	r24, 0xF0	; 240
    2d2e:	80 80       	ld	r8, Z
    2d30:	80 80       	ld	r8, Z
    2d32:	80 80       	ld	r8, Z
    2d34:	80 80       	ld	r8, Z
    2d36:	80 81       	ld	r24, Z
    2d38:	80 7f       	andi	r24, 0xF0	; 240
    2d3a:	80 7f       	andi	r24, 0xF0	; 240
    2d3c:	80 80       	ld	r8, Z
    2d3e:	80 7f       	andi	r24, 0xF0	; 240
    2d40:	7f 80       	ldd	r7, Y+7	; 0x07
    2d42:	80 80       	ld	r8, Z
    2d44:	80 80       	ld	r8, Z
    2d46:	80 80       	ld	r8, Z
    2d48:	81 81       	ldd	r24, Z+1	; 0x01
    2d4a:	80 81       	ld	r24, Z
    2d4c:	80 80       	ld	r8, Z
    2d4e:	80 80       	ld	r8, Z
    2d50:	80 80       	ld	r8, Z
    2d52:	7f 80       	ldd	r7, Y+7	; 0x07
    2d54:	80 80       	ld	r8, Z
    2d56:	7f 7f       	andi	r23, 0xFF	; 255
    2d58:	80 80       	ld	r8, Z
    2d5a:	80 7f       	andi	r24, 0xF0	; 240
    2d5c:	80 80       	ld	r8, Z
    2d5e:	80 80       	ld	r8, Z
    2d60:	80 81       	ld	r24, Z
    2d62:	7f 7f       	andi	r23, 0xFF	; 255
    2d64:	80 80       	ld	r8, Z
    2d66:	81 80       	ldd	r8, Z+1	; 0x01
    2d68:	80 80       	ld	r8, Z
    2d6a:	7f 81       	ldd	r23, Y+7	; 0x07
    2d6c:	80 80       	ld	r8, Z
    2d6e:	80 80       	ld	r8, Z
    2d70:	80 81       	ld	r24, Z
    2d72:	80 80       	ld	r8, Z
    2d74:	80 80       	ld	r8, Z
    2d76:	80 80       	ld	r8, Z
    2d78:	80 81       	ld	r24, Z
    2d7a:	80 80       	ld	r8, Z
    2d7c:	80 81       	ld	r24, Z
    2d7e:	80 7f       	andi	r24, 0xF0	; 240
    2d80:	7f 81       	ldd	r23, Y+7	; 0x07
    2d82:	80 80       	ld	r8, Z
    2d84:	80 80       	ld	r8, Z
    2d86:	81 81       	ldd	r24, Z+1	; 0x01
    2d88:	7f 80       	ldd	r7, Y+7	; 0x07
    2d8a:	7f 80       	ldd	r7, Y+7	; 0x07
    2d8c:	80 80       	ld	r8, Z
    2d8e:	7f 80       	ldd	r7, Y+7	; 0x07
    2d90:	80 81       	ld	r24, Z
    2d92:	80 80       	ld	r8, Z
    2d94:	7f 80       	ldd	r7, Y+7	; 0x07
    2d96:	7f 80       	ldd	r7, Y+7	; 0x07
    2d98:	80 80       	ld	r8, Z
    2d9a:	7f 80       	ldd	r7, Y+7	; 0x07
    2d9c:	81 80       	ldd	r8, Z+1	; 0x01
    2d9e:	80 80       	ld	r8, Z
    2da0:	80 80       	ld	r8, Z
    2da2:	80 80       	ld	r8, Z
    2da4:	7f 80       	ldd	r7, Y+7	; 0x07
    2da6:	80 80       	ld	r8, Z
    2da8:	80 80       	ld	r8, Z
    2daa:	80 80       	ld	r8, Z
    2dac:	81 80       	ldd	r8, Z+1	; 0x01
    2dae:	80 7f       	andi	r24, 0xF0	; 240
    2db0:	80 7f       	andi	r24, 0xF0	; 240
    2db2:	80 80       	ld	r8, Z
    2db4:	80 80       	ld	r8, Z
    2db6:	80 81       	ld	r24, Z
    2db8:	80 80       	ld	r8, Z
    2dba:	80 80       	ld	r8, Z
    2dbc:	7f 80       	ldd	r7, Y+7	; 0x07
    2dbe:	81 80       	ldd	r8, Z+1	; 0x01
    2dc0:	81 80       	ldd	r8, Z+1	; 0x01
    2dc2:	80 80       	ld	r8, Z
    2dc4:	80 80       	ld	r8, Z
    2dc6:	80 80       	ld	r8, Z
    2dc8:	80 80       	ld	r8, Z
    2dca:	80 7f       	andi	r24, 0xF0	; 240
    2dcc:	80 80       	ld	r8, Z
    2dce:	80 80       	ld	r8, Z
    2dd0:	7f 80       	ldd	r7, Y+7	; 0x07
    2dd2:	80 80       	ld	r8, Z
    2dd4:	7f 81       	ldd	r23, Y+7	; 0x07
    2dd6:	80 7f       	andi	r24, 0xF0	; 240
    2dd8:	80 80       	ld	r8, Z
    2dda:	80 81       	ld	r24, Z
    2ddc:	80 80       	ld	r8, Z
    2dde:	80 80       	ld	r8, Z
    2de0:	81 7f       	andi	r24, 0xF1	; 241
    2de2:	80 80       	ld	r8, Z
    2de4:	80 80       	ld	r8, Z
    2de6:	80 80       	ld	r8, Z
    2de8:	80 81       	ld	r24, Z
    2dea:	80 81       	ld	r24, Z
    2dec:	80 7f       	andi	r24, 0xF0	; 240
    2dee:	80 80       	ld	r8, Z
    2df0:	80 80       	ld	r8, Z
    2df2:	80 80       	ld	r8, Z
    2df4:	80 7f       	andi	r24, 0xF0	; 240
    2df6:	80 80       	ld	r8, Z
    2df8:	81 81       	ldd	r24, Z+1	; 0x01
    2dfa:	80 80       	ld	r8, Z
    2dfc:	80 80       	ld	r8, Z
    2dfe:	7f 7f       	andi	r23, 0xFF	; 255
    2e00:	80 80       	ld	r8, Z
    2e02:	81 7f       	andi	r24, 0xF1	; 241
    2e04:	80 80       	ld	r8, Z
    2e06:	81 81       	ldd	r24, Z+1	; 0x01
    2e08:	80 80       	ld	r8, Z
    2e0a:	81 80       	ldd	r8, Z+1	; 0x01
    2e0c:	80 81       	ld	r24, Z
    2e0e:	7f 81       	ldd	r23, Y+7	; 0x07
    2e10:	80 80       	ld	r8, Z
    2e12:	80 81       	ld	r24, Z
    2e14:	80 80       	ld	r8, Z
    2e16:	81 80       	ldd	r8, Z+1	; 0x01
    2e18:	80 7f       	andi	r24, 0xF0	; 240
    2e1a:	80 81       	ld	r24, Z
    2e1c:	80 7f       	andi	r24, 0xF0	; 240
    2e1e:	80 80       	ld	r8, Z
    2e20:	80 81       	ld	r24, Z
    2e22:	80 80       	ld	r8, Z
    2e24:	80 80       	ld	r8, Z
    2e26:	80 81       	ld	r24, Z
    2e28:	7f 80       	ldd	r7, Y+7	; 0x07
    2e2a:	7f 80       	ldd	r7, Y+7	; 0x07
    2e2c:	80 80       	ld	r8, Z
    2e2e:	80 7f       	andi	r24, 0xF0	; 240
    2e30:	80 80       	ld	r8, Z
    2e32:	80 80       	ld	r8, Z
    2e34:	81 80       	ldd	r8, Z+1	; 0x01
    2e36:	80 80       	ld	r8, Z
    2e38:	80 81       	ld	r24, Z
    2e3a:	80 81       	ld	r24, Z
    2e3c:	80 7f       	andi	r24, 0xF0	; 240
    2e3e:	80 81       	ld	r24, Z
    2e40:	80 80       	ld	r8, Z
    2e42:	80 80       	ld	r8, Z
    2e44:	80 80       	ld	r8, Z
    2e46:	7f 80       	ldd	r7, Y+7	; 0x07
    2e48:	80 80       	ld	r8, Z
    2e4a:	80 7f       	andi	r24, 0xF0	; 240
    2e4c:	80 80       	ld	r8, Z
    2e4e:	80 80       	ld	r8, Z
    2e50:	81 81       	ldd	r24, Z+1	; 0x01
    2e52:	80 80       	ld	r8, Z
    2e54:	80 81       	ld	r24, Z
    2e56:	80 80       	ld	r8, Z
    2e58:	80 7f       	andi	r24, 0xF0	; 240
    2e5a:	80 7f       	andi	r24, 0xF0	; 240
    2e5c:	80 80       	ld	r8, Z
    2e5e:	80 80       	ld	r8, Z
    2e60:	80 80       	ld	r8, Z
    2e62:	80 80       	ld	r8, Z
    2e64:	7f 80       	ldd	r7, Y+7	; 0x07
    2e66:	7f 80       	ldd	r7, Y+7	; 0x07
    2e68:	7f 80       	ldd	r7, Y+7	; 0x07
    2e6a:	80 80       	ld	r8, Z
    2e6c:	80 80       	ld	r8, Z
    2e6e:	80 7f       	andi	r24, 0xF0	; 240
    2e70:	80 80       	ld	r8, Z
    2e72:	80 80       	ld	r8, Z
    2e74:	80 81       	ld	r24, Z
    2e76:	81 80       	ldd	r8, Z+1	; 0x01
    2e78:	7f 80       	ldd	r7, Y+7	; 0x07
    2e7a:	80 80       	ld	r8, Z
    2e7c:	80 80       	ld	r8, Z
    2e7e:	80 7f       	andi	r24, 0xF0	; 240
    2e80:	81 80       	ldd	r8, Z+1	; 0x01
    2e82:	80 80       	ld	r8, Z
    2e84:	80 80       	ld	r8, Z
    2e86:	80 80       	ld	r8, Z
    2e88:	80 80       	ld	r8, Z
    2e8a:	80 80       	ld	r8, Z
    2e8c:	80 80       	ld	r8, Z
    2e8e:	81 80       	ldd	r8, Z+1	; 0x01
    2e90:	80 80       	ld	r8, Z
    2e92:	7f 80       	ldd	r7, Y+7	; 0x07
    2e94:	80 80       	ld	r8, Z
    2e96:	80 80       	ld	r8, Z
    2e98:	80 80       	ld	r8, Z
    2e9a:	80 80       	ld	r8, Z
    2e9c:	80 80       	ld	r8, Z
    2e9e:	80 7f       	andi	r24, 0xF0	; 240
    2ea0:	80 80       	ld	r8, Z
    2ea2:	80 80       	ld	r8, Z
    2ea4:	80 80       	ld	r8, Z
    2ea6:	80 80       	ld	r8, Z
    2ea8:	7f 80       	ldd	r7, Y+7	; 0x07
    2eaa:	80 80       	ld	r8, Z
    2eac:	80 80       	ld	r8, Z
    2eae:	80 80       	ld	r8, Z
    2eb0:	7f 80       	ldd	r7, Y+7	; 0x07
    2eb2:	80 80       	ld	r8, Z
    2eb4:	80 80       	ld	r8, Z
    2eb6:	80 81       	ld	r24, Z
    2eb8:	80 80       	ld	r8, Z
    2eba:	80 80       	ld	r8, Z
    2ebc:	80 80       	ld	r8, Z
    2ebe:	80 80       	ld	r8, Z
    2ec0:	80 80       	ld	r8, Z
    2ec2:	81 80       	ldd	r8, Z+1	; 0x01
    2ec4:	80 80       	ld	r8, Z
    2ec6:	81 80       	ldd	r8, Z+1	; 0x01
    2ec8:	80 7f       	andi	r24, 0xF0	; 240
    2eca:	80 7f       	andi	r24, 0xF0	; 240
    2ecc:	80 81       	ld	r24, Z
    2ece:	80 80       	ld	r8, Z
    2ed0:	80 81       	ld	r24, Z
    2ed2:	7f 80       	ldd	r7, Y+7	; 0x07
    2ed4:	80 80       	ld	r8, Z
    2ed6:	80 80       	ld	r8, Z
    2ed8:	80 80       	ld	r8, Z
    2eda:	80 80       	ld	r8, Z
    2edc:	81 80       	ldd	r8, Z+1	; 0x01
    2ede:	80 80       	ld	r8, Z
    2ee0:	80 7f       	andi	r24, 0xF0	; 240
    2ee2:	80 80       	ld	r8, Z
    2ee4:	7f 80       	ldd	r7, Y+7	; 0x07
    2ee6:	80 80       	ld	r8, Z
    2ee8:	80 80       	ld	r8, Z
    2eea:	80 80       	ld	r8, Z
    2eec:	80 80       	ld	r8, Z
    2eee:	80 80       	ld	r8, Z
    2ef0:	80 80       	ld	r8, Z
    2ef2:	7f 80       	ldd	r7, Y+7	; 0x07
    2ef4:	81 80       	ldd	r8, Z+1	; 0x01
    2ef6:	80 80       	ld	r8, Z
    2ef8:	7f 7f       	andi	r23, 0xFF	; 255
    2efa:	80 81       	ld	r24, Z
    2efc:	80 81       	ld	r24, Z
    2efe:	80 80       	ld	r8, Z
    2f00:	80 80       	ld	r8, Z
    2f02:	7f 80       	ldd	r7, Y+7	; 0x07
    2f04:	7f 81       	ldd	r23, Y+7	; 0x07
    2f06:	7f 80       	ldd	r7, Y+7	; 0x07
    2f08:	81 7f       	andi	r24, 0xF1	; 241
    2f0a:	7f 7f       	andi	r23, 0xFF	; 255
    2f0c:	7f 80       	ldd	r7, Y+7	; 0x07
    2f0e:	81 80       	ldd	r8, Z+1	; 0x01
    2f10:	80 80       	ld	r8, Z
    2f12:	80 80       	ld	r8, Z
    2f14:	81 80       	ldd	r8, Z+1	; 0x01
    2f16:	80 80       	ld	r8, Z
    2f18:	80 80       	ld	r8, Z
    2f1a:	81 80       	ldd	r8, Z+1	; 0x01
    2f1c:	7f 80       	ldd	r7, Y+7	; 0x07
    2f1e:	80 80       	ld	r8, Z
    2f20:	80 80       	ld	r8, Z
    2f22:	80 7f       	andi	r24, 0xF0	; 240
    2f24:	81 81       	ldd	r24, Z+1	; 0x01
    2f26:	80 80       	ld	r8, Z
    2f28:	80 80       	ld	r8, Z
    2f2a:	81 80       	ldd	r8, Z+1	; 0x01
    2f2c:	80 80       	ld	r8, Z
    2f2e:	80 7f       	andi	r24, 0xF0	; 240
    2f30:	7f 80       	ldd	r7, Y+7	; 0x07
    2f32:	7f 80       	ldd	r7, Y+7	; 0x07
    2f34:	80 7f       	andi	r24, 0xF0	; 240
    2f36:	80 80       	ld	r8, Z
    2f38:	80 81       	ld	r24, Z
    2f3a:	81 7f       	andi	r24, 0xF1	; 241
    2f3c:	80 80       	ld	r8, Z
    2f3e:	81 81       	ldd	r24, Z+1	; 0x01
    2f40:	80 80       	ld	r8, Z
    2f42:	81 7f       	andi	r24, 0xF1	; 241
    2f44:	81 80       	ldd	r8, Z+1	; 0x01
    2f46:	80 80       	ld	r8, Z

00002f48 <__ctors_end>:
    2f48:	11 24       	eor	r1, r1
    2f4a:	1f be       	out	0x3f, r1	; 63
    2f4c:	cf ef       	ldi	r28, 0xFF	; 255
    2f4e:	d4 e0       	ldi	r29, 0x04	; 4
    2f50:	de bf       	out	0x3e, r29	; 62
    2f52:	cd bf       	out	0x3d, r28	; 61

00002f54 <__do_clear_bss>:
    2f54:	21 e0       	ldi	r18, 0x01	; 1
    2f56:	a0 e0       	ldi	r26, 0x00	; 0
    2f58:	b1 e0       	ldi	r27, 0x01	; 1
    2f5a:	01 c0       	rjmp	.+2      	; 0x2f5e <.do_clear_bss_start>

00002f5c <.do_clear_bss_loop>:
    2f5c:	1d 92       	st	X+, r1

00002f5e <.do_clear_bss_start>:
    2f5e:	a2 30       	cpi	r26, 0x02	; 2
    2f60:	b2 07       	cpc	r27, r18
    2f62:	e1 f7       	brne	.-8      	; 0x2f5c <.do_clear_bss_loop>
    2f64:	0e 94 e6 17 	call	0x2fcc	; 0x2fcc <main>
    2f68:	0c 94 63 18 	jmp	0x30c6	; 0x30c6 <_exit>

00002f6c <__bad_interrupt>:
    2f6c:	0c 94 00 00 	jmp	0	; 0x0 <__vectors>

00002f70 <__vector_13>:
//top=8000000/16000=500
volatile unsigned char hsync=0;
volatile unsigned char hsyncbak=0;

	
SIGNAL (TIMER1_OVF_vect){  //
    2f70:	1f 92       	push	r1
    2f72:	0f 92       	push	r0
    2f74:	0f b6       	in	r0, 0x3f	; 63
    2f76:	0f 92       	push	r0
    2f78:	11 24       	eor	r1, r1
    2f7a:	8f 93       	push	r24
	hsync++;
    2f7c:	80 91 01 01 	lds	r24, 0x0101
    2f80:	8f 5f       	subi	r24, 0xFF	; 255
    2f82:	80 93 01 01 	sts	0x0101, r24
}
    2f86:	8f 91       	pop	r24
    2f88:	0f 90       	pop	r0
    2f8a:	0f be       	out	0x3f, r0	; 63
    2f8c:	0f 90       	pop	r0
    2f8e:	1f 90       	pop	r1
    2f90:	18 95       	reti

00002f92 <wave_init>:

#define CENTER ((F_CPU / FREQ_H)/2)		// TOPl
//
void wave_init(void)
{
	TCNT1 = 0;
    2f92:	10 92 85 00 	sts	0x0085, r1
    2f96:	10 92 84 00 	sts	0x0084, r1
	ICR1 = (F_CPU / FREQ_H) - 1;	// TOPl
    2f9a:	83 ef       	ldi	r24, 0xF3	; 243
    2f9c:	91 e0       	ldi	r25, 0x01	; 1
    2f9e:	90 93 87 00 	sts	0x0087, r25
    2fa2:	80 93 86 00 	sts	0x0086, r24
	TCCR1A = (3<<COM1A0)|(2<<COM1B0)|(2<<WGM10);
    2fa6:	82 ee       	ldi	r24, 0xE2	; 226
    2fa8:	80 93 80 00 	sts	0x0080, r24
	TCCR1B = (3<<WGM12)|(1<<CS10);
    2fac:	89 e1       	ldi	r24, 0x19	; 25
    2fae:	80 93 81 00 	sts	0x0081, r24

	TIMSK1 |= (1<<TOIE1);	// ^C}[P
    2fb2:	ef e6       	ldi	r30, 0x6F	; 111
    2fb4:	f0 e0       	ldi	r31, 0x00	; 0
    2fb6:	80 81       	ld	r24, Z
    2fb8:	81 60       	ori	r24, 0x01	; 1
    2fba:	80 83       	st	Z, r24
	DDRB |= (1<<2);		/// port out
    2fbc:	22 9a       	sbi	0x04, 2	; 4

	OCR1B = CENTER;
    2fbe:	8a ef       	ldi	r24, 0xFA	; 250
    2fc0:	90 e0       	ldi	r25, 0x00	; 0
    2fc2:	90 93 8b 00 	sts	0x008B, r25
    2fc6:	80 93 8a 00 	sts	0x008A, r24
    2fca:	08 95       	ret

00002fcc <main>:
	int vol;
	int speed=1;
	int i;
	

	wave_init();
    2fcc:	0e 94 c9 17 	call	0x2f92	; 0x2f92 <wave_init>
	sei();
    2fd0:	78 94       	sei
int main(void)
{
	#define PTRMAX 12000	//wav data size[bytes]
	unsigned int ptr;
	int vol;
	int speed=1;
    2fd2:	21 e0       	ldi	r18, 0x01	; 1
    2fd4:	30 e0       	ldi	r19, 0x00	; 0
	

	wave_init();
	sei();
	
	ptr=0;
    2fd6:	c0 e0       	ldi	r28, 0x00	; 0
    2fd8:	d0 e0       	ldi	r29, 0x00	; 0
    while(1)
    {
		vol=(int)pgm_read_byte(&(wavdat[ptr]));
		vol -= 128;
		vol = (vol*19)/10;
    2fda:	0f 2e       	mov	r0, r31
    2fdc:	f3 e1       	ldi	r31, 0x13	; 19
    2fde:	bf 2e       	mov	r11, r31
    2fe0:	f0 2d       	mov	r31, r0
    2fe2:	0f 2e       	mov	r0, r31
    2fe4:	fa e0       	ldi	r31, 0x0A	; 10
    2fe6:	ef 2e       	mov	r14, r31
    2fe8:	f1 2c       	mov	r15, r1
    2fea:	f0 2d       	mov	r31, r0
		vol += CENTER;
		for(i=0;i<speed;i++){
    2fec:	c1 2c       	mov	r12, r1
    2fee:	d1 2c       	mov	r13, r1
			while(hsync==hsyncbak){
			}
			hsyncbak=hsync;
		}
		hsyncbak=hsync;
		OCR1B = (unsigned int)vol;	//Output Compare Register B
    2ff0:	0a e8       	ldi	r16, 0x8A	; 138
    2ff2:	10 e0       	ldi	r17, 0x00	; 0
		ptr++;
		if(ptr>=PTRMAX){
			ptr=0;
			speed++;
			if(speed>3)speed=1;
    2ff4:	99 24       	eor	r9, r9
    2ff6:	93 94       	inc	r9
    2ff8:	a1 2c       	mov	r10, r1
    2ffa:	04 c0       	rjmp	.+8      	; 0x3004 <main+0x38>
    2ffc:	29 2d       	mov	r18, r9
    2ffe:	3a 2d       	mov	r19, r10
		}
		hsyncbak=hsync;
		OCR1B = (unsigned int)vol;	//Output Compare Register B
		ptr++;
		if(ptr>=PTRMAX){
			ptr=0;
    3000:	cc 2d       	mov	r28, r12
    3002:	dd 2d       	mov	r29, r13
	sei();
	
	ptr=0;
    while(1)
    {
		vol=(int)pgm_read_byte(&(wavdat[ptr]));
    3004:	fe 01       	movw	r30, r28
    3006:	e8 59       	subi	r30, 0x98	; 152
    3008:	ff 4f       	sbci	r31, 0xFF	; 255
    300a:	44 91       	lpm	r20, Z
    300c:	50 e0       	ldi	r21, 0x00	; 0
		vol -= 128;
    300e:	40 58       	subi	r20, 0x80	; 128
    3010:	51 09       	sbc	r21, r1
		vol = (vol*19)/10;
    3012:	b4 9e       	mul	r11, r20
    3014:	c0 01       	movw	r24, r0
    3016:	b5 9e       	mul	r11, r21
    3018:	90 0d       	add	r25, r0
    301a:	11 24       	eor	r1, r1
    301c:	b7 01       	movw	r22, r14
    301e:	0e 94 3b 18 	call	0x3076	; 0x3076 <__divmodhi4>
		vol += CENTER;
    3022:	ab 01       	movw	r20, r22
    3024:	46 50       	subi	r20, 0x06	; 6
    3026:	5f 4f       	sbci	r21, 0xFF	; 255
		for(i=0;i<speed;i++){
    3028:	12 16       	cp	r1, r18
    302a:	13 06       	cpc	r1, r19
    302c:	84 f4       	brge	.+32     	; 0x304e <main+0x82>
    302e:	8c 2d       	mov	r24, r12
    3030:	9d 2d       	mov	r25, r13
			while(hsync==hsyncbak){
    3032:	70 91 01 01 	lds	r23, 0x0101
    3036:	60 91 00 01 	lds	r22, 0x0100
    303a:	76 17       	cp	r23, r22
    303c:	d1 f3       	breq	.-12     	; 0x3032 <main+0x66>
			}
			hsyncbak=hsync;
    303e:	60 91 01 01 	lds	r22, 0x0101
    3042:	60 93 00 01 	sts	0x0100, r22
    {
		vol=(int)pgm_read_byte(&(wavdat[ptr]));
		vol -= 128;
		vol = (vol*19)/10;
		vol += CENTER;
		for(i=0;i<speed;i++){
    3046:	01 96       	adiw	r24, 0x01	; 1
    3048:	82 17       	cp	r24, r18
    304a:	93 07       	cpc	r25, r19
    304c:	91 f7       	brne	.-28     	; 0x3032 <main+0x66>
			while(hsync==hsyncbak){
			}
			hsyncbak=hsync;
		}
		hsyncbak=hsync;
    304e:	80 91 01 01 	lds	r24, 0x0101
    3052:	80 93 00 01 	sts	0x0100, r24
		OCR1B = (unsigned int)vol;	//Output Compare Register B
    3056:	f8 01       	movw	r30, r16
    3058:	51 83       	std	Z+1, r21	; 0x01
    305a:	40 83       	st	Z, r20
		ptr++;
    305c:	21 96       	adiw	r28, 0x01	; 1
		if(ptr>=PTRMAX){
    305e:	c0 3e       	cpi	r28, 0xE0	; 224
    3060:	fe e2       	ldi	r31, 0x2E	; 46
    3062:	df 07       	cpc	r29, r31
    3064:	78 f2       	brcs	.-98     	; 0x3004 <main+0x38>
			ptr=0;
			speed++;
    3066:	2f 5f       	subi	r18, 0xFF	; 255
    3068:	3f 4f       	sbci	r19, 0xFF	; 255
			if(speed>3)speed=1;
    306a:	24 30       	cpi	r18, 0x04	; 4
    306c:	31 05       	cpc	r19, r1
    306e:	34 f6       	brge	.-116    	; 0x2ffc <main+0x30>
		}
		hsyncbak=hsync;
		OCR1B = (unsigned int)vol;	//Output Compare Register B
		ptr++;
		if(ptr>=PTRMAX){
			ptr=0;
    3070:	cc 2d       	mov	r28, r12
    3072:	dd 2d       	mov	r29, r13
    3074:	c7 cf       	rjmp	.-114    	; 0x3004 <main+0x38>

00003076 <__divmodhi4>:
    3076:	97 fb       	bst	r25, 7
    3078:	07 2e       	mov	r0, r23
    307a:	16 f4       	brtc	.+4      	; 0x3080 <__divmodhi4+0xa>
    307c:	00 94       	com	r0
    307e:	07 d0       	rcall	.+14     	; 0x308e <__divmodhi4_neg1>
    3080:	77 fd       	sbrc	r23, 7
    3082:	09 d0       	rcall	.+18     	; 0x3096 <__divmodhi4_neg2>
    3084:	0e 94 4f 18 	call	0x309e	; 0x309e <__udivmodhi4>
    3088:	07 fc       	sbrc	r0, 7
    308a:	05 d0       	rcall	.+10     	; 0x3096 <__divmodhi4_neg2>
    308c:	3e f4       	brtc	.+14     	; 0x309c <__divmodhi4_exit>

0000308e <__divmodhi4_neg1>:
    308e:	90 95       	com	r25
    3090:	81 95       	neg	r24
    3092:	9f 4f       	sbci	r25, 0xFF	; 255
    3094:	08 95       	ret

00003096 <__divmodhi4_neg2>:
    3096:	70 95       	com	r23
    3098:	61 95       	neg	r22
    309a:	7f 4f       	sbci	r23, 0xFF	; 255

0000309c <__divmodhi4_exit>:
    309c:	08 95       	ret

0000309e <__udivmodhi4>:
    309e:	aa 1b       	sub	r26, r26
    30a0:	bb 1b       	sub	r27, r27
    30a2:	51 e1       	ldi	r21, 0x11	; 17
    30a4:	07 c0       	rjmp	.+14     	; 0x30b4 <__udivmodhi4_ep>

000030a6 <__udivmodhi4_loop>:
    30a6:	aa 1f       	adc	r26, r26
    30a8:	bb 1f       	adc	r27, r27
    30aa:	a6 17       	cp	r26, r22
    30ac:	b7 07       	cpc	r27, r23
    30ae:	10 f0       	brcs	.+4      	; 0x30b4 <__udivmodhi4_ep>
    30b0:	a6 1b       	sub	r26, r22
    30b2:	b7 0b       	sbc	r27, r23

000030b4 <__udivmodhi4_ep>:
    30b4:	88 1f       	adc	r24, r24
    30b6:	99 1f       	adc	r25, r25
    30b8:	5a 95       	dec	r21
    30ba:	a9 f7       	brne	.-22     	; 0x30a6 <__udivmodhi4_loop>
    30bc:	80 95       	com	r24
    30be:	90 95       	com	r25
    30c0:	bc 01       	movw	r22, r24
    30c2:	cd 01       	movw	r24, r26
    30c4:	08 95       	ret

000030c6 <_exit>:
    30c6:	f8 94       	cli

000030c8 <__stop_program>:
    30c8:	ff cf       	rjmp	.-2      	; 0x30c8 <__stop_program>
